(lp1
V1LdnYt4HVKWbFqx5DYWikVEPwZpLXL3REG
p2
aV1NAWtTh4SGMZjsuUmQY5i5sj7hDeXyEAGF
p3
aV1JV3fzjDWtPi98UtjWUq523Xd3kjjPL4dE
p4
aV1FNVhvvvHommH5DjodLGZ18Tprm9FjvRnj
p5
aV1G5RsjXGXJq5BRcnHCVGcGcWMrShrkhTiM
p6
aV1F9Cb7KGv7M3Lpbn8BEMSBmLb6M4KGH2bn
p7
aV14Bzdcn3reCoC15jaNoKi4mE1c5mdGgRt7
p8
aV1CVj4mSpZE3tKpYxMBMC6LTTKMC4SsNdCH
p9
aV1GZVRaP1pBtxcWtP8GsuBy8DqFXNLtU7dk
p10
aV1Q1X9fc18C5HSK4Q2KxWmLGtAfuEgzUQxE
p11
aV175fnbmDme9NkUrSA5C3Y7FVxzCR7gNLMh
p12
aV14mW4syYSs29WUosfmRuoQUmsQjPRCiUFj
p13
aV1wV52Nvfwei3rzU3s7ancvM7km8viYKT1
p14
aV19pzy3cQjBujn3Rg39U3zryzAHmCsKJAEP
p15
aV1BMJpZvDTyHa1i4mrXmFNXtURBoZGmFrWA
p16
aV1EHBGTA4XQuJ87csykn164oifgJiyfNZrF
p17
aV159UfaDnXsY9AAxjiNm2C4AuygcKiHYFbn
p18
aV13uPgJVXSN18mnM2fFw7sCDyVPhEto2ETt
p19
aV16qvDfZfy6WyF5viwQbrUTr2VK1HZbxUTq
p20
aV1HmRTaYcNT3vVvRtqFuSi35gQdkTornW5m
p21
aV1Ae3HRNUwZR1ToTxturaForuJsWQfPDJLo
p22
aV1NVEPz97NsGcw7GKZ8g3KnWYUcM5fNKqJP
p23
aV1Q7dYhiETJdMUZJ4EtFin3AKJJ8LfeNG2K
p24
aV1BDKkXL6svW76ruk6mpkJGUdJdFb6utHih
p25
aV1PZtWBJxTDq9WP4C5GHb6mA5BE3FEzTatY
p26
aV1GgLzWjTsJqN5Jgw3tYub4rQJhuGfKkWz
p27
aV13rZiDW7ir2JrKJuZKNmZnia1yjBXtozgC
p28
aV1Cth84xLyd1pDuVftzK36hGeFkY5WhbZGa
p29
aV16GiJJ85R4TVZHypuexHNfKMYaxyiCQSCT
p30
aV1Ju89XQzoySecEDEYGg7omp9Lndox3h3Qm
p31
aV12KPMsuARoPfnNV4koWWW1REKhGggPtGdT
p32
aV17Fxhfk44Gur1TqFVwBuear9U5f97oXvYy
p33
aV19JpeLgirAggdXi2kG4KwVS8xaWQ1nxeUo
p34
aV13751sK92mQXc15zRSzJYxarE73mywCqx7
p35
aV1KKBELsVaH9mncqkyA49u8xnnJDXAmAhxb
p36
aV16ntuvSX93BYaSQZwP3zU8Aw1KVqGEaZMv
p37
aV1796uFurmHx6mVF2JFqxjE75H8hPhrgtQq
p38
aV1PicMwHRiLhwWg4g7QJYQTgiUmpJzxqqwq
p39
aV1LDrWBwUs7ufW5MZMNhmqc5dJ5YWpUEFcP
p40
aV13gAUYwM5nTHoCcwyj2JfUoiAWKN1Cpkfu
p41
aV1DuXwk4df2VFYnMknuDbrm7iREEXjMgJiJ
p42
aV16W7nnL5GJgLpYGrsnTrfRskHHxAowFKgP
p43
aV12ZcB3X3fvfCocHre5vxQ34JSkvAedxAK6
p44
aV1KQkS7t9ZqKKpXueFjceRiNRkCXy7EXmeH
p45
aV1FmcQSi7vwpQchj8jSBvn5BoX3s7v7GFv2
p46
aV19FqBsLY4MBMMWmHbBq4NmygWWwNxTXnJW
p47
aV18ro2KdNPrdQgmu1ctvn3XwWS6BvZ6ETgG
p48
aV19jAgHMzDWoRqo1StjKjuMhFNniknKHxD2
p49
aV1Bdyn7npXQiNYnBjBjm39wEFYrazwU4Z1n
p50
aV1Pxe4MCPc4KixX689AHemiWv7btreCp2VW
p51
aV19BhGJWsoBjnWaADt7TJffrj1uh3UAN18Z
p52
aV18Vu62qwPzPsgX8CiL8K9X17v8ybEuo5gY
p53
aV16DBSubkSGZix9RgQZh3wMQGmm1QjNczxL
p54
aV1GfcpJXtWkmMWCpzv27rn51MV1AM5U6Agq
p55
aV1CLvckCupEbHdPk34zXcRpcHi5vkt35PXz
p56
aV1GujpyKJYVX4hSvKuYxCQLMbLQG5dhNHsv
p57
aV17Fi5u7eM2w9oAxFp1FSK6PquujLH21zF2
p58
aV14MMBzUBJZ1vkZu2ShV1Qp7SNqpRk4PFZT
p59
aV1CqPRjEhrrf4A34cTHkbSL24CCedwu5tSH
p60
aV19JkxCRLgV9i56wM46AtmhxJy2kZBrjAeN
p61
aV1MeR5vWhy1pjjkBkLwe4omefRzEvzt5Y1n
p62
aV1EUSw57F26U3mB3B5LXeN4MMNAjjP2gagb
p63
aV14j6AxQJWyzrpPpMjVdw2d3fnou9rntLGh
p64
aV1BX431VTQ7PnFarTaamBVnP2R4rkDkrcLe
p65
aV1EXJcpPA1CEkPZb5QCyM4ynL7fSZmU2eN9
p66
aV1KEc4JLcc2jG8q75mA96q24s6xccfXk97f
p67
aV1CFp4gsHdmLZaNXbWBgfaUwAi5j6i1kY5o
p68
aV1CW443bxY4saCPJ7xgWsdmKvf3vz8pLxpF
p69
aV1KbfcftQYsqkQio9n6DUEPFWvHvjYTUDFv
p70
aV1L3ThJCzxNUrKtgdR3pN8D4Hu1NW4qfkDy
p71
aV1JK2nU56iUxhZCubAd3PwfFy5S8TRtETRU
p72
aV1JT7AfBtn9ak1q1h4ttmg7HS8NtmNsrLVV
p73
aV1KJpMs7Z9pyHfLbsS1J4S4MHgpe4vFVKWQ
p74
aV16gKUseXLA4UVsMA8NNdswHWVPRVP3Xb7K
p75
aV1EYpNHEQhyTiaewc6qzscRUC4688atAvgb
p76
aV1P6VKNmYDttyacfb4bcfkaw5LjtWHpJ13L
p77
aV1AUigSfZEsSWKB9G2UmRxHmpZpG6ej7jFj
p78
aV1MM94w5FtHJfpkmzgVNrVwocTk1RT3BKCZ
p79
aV1hNi3GP41TbhHtPkDgLnZ2yKKKZmK8VYa
p80
aV17PGGLGKoSxAfB9iEVWve6Hvs14eN3YCLr
p81
aV1JkdNdMmsjnfFDej6JuRn9sQeTeyM6E6Dr
p82
aV15s8AST6KUcHRePfUw1YDimGQZAkRoLqZ2
p83
aV1PfKRzQcWQyHSb7RCXsvFhZoEnJUgYXVe9
p84
aV1AHzp7igvBimfFABkVZPrPqUJCEALWpH9H
p85
aV1PP34w4UU3ooPVW2SmLa3UMrchLMFzVEyY
p86
aV1K5ZqEtvMcx4fmF7JDdtp645RHdcPAStVS
p87
aV1Cp5ihaZFytWNWWmP7Mp5KArLVVDZZZSDq
p88
aV1NaHi3u8snBehgzjAENxanjUfSydz8JU15
p89
aV18zZ3YMy1VaEx3xbqZMth8hrCPwXVgFyxr
p90
aV13DerQ3cyFv6czK2SJizNpYeVGbQgkV9XP
p91
aV18dRu9CjNYVkTSJuTQgtGH7BHQCJLsvPEh
p92
aV1AiRxgT21u6rJqn3rXkFqZUPURTeMZyey2
p93
aV1A32ZYkKNey5nVQfcuEGAd9DjpKKYs1JLc
p94
aV1QJnujL9FT8CQeb8KpwZLEfPn8QM99KkrD
p95
aV1EqaP3gP9ceJ96TJAtm7midUqnKyLALS5B
p96
aV1BDm1eSXkqwqcN8kfNRfyfHmaX1gM5WNgv
p97
aV12mcpeysfA5PAi7djJDFEo3Ke7p8nyGDYf
p98
aV1GitXwnK9d1CKbKjeFN3BPV5KPpusvq2Pr
p99
aV19JmiLxzgGj7fzSfcJPaqzQLMhXYKDzhRA
p100
aV1tnNKVU644FGwoNAR6VjBYQY4AE1NuobD
p101
aV1FYfXUWmS84dqtUGmr8m1HyQhRfpo3hKyY
p102
aV1AAUUGHrMJkNLSv9zF7yH6XRaA27iGb59L
p103
aV16jZu33DNRLpZWJGUgAeMEk8iyEuoBhkie
p104
aV1Fbyw7UbMuKiCiCbdCmH5x3wKimxQLr4Uj
p105
aV1ECR2zs34d1bxHo39x9TjqhS33HMK5HKcX
p106
aV1Dt7rZ8s1vpFgu6KX1oQmc1DfKu6cu63oZ
p107
aV1FxiT17LkYThBXWTQNEugEU7CgMu4k8bXN
p108
aV1AWt8D7G8ALukKXPjkuAovHNHddngW5juh
p109
aV132smcWxUDnoEztWosfLoozeSAu7BfjkSM
p110
aV163d5EqBpqACWkrqdbaiS2RrbzaWmoA1gr
p111
aV13tT2u2qLxJgS8C8hfMD7SQdJfqUg4W8A9
p112
aV1Fcxfs5gnHXy3kWXCJCacxfr36BcztvMbp
p113
aV1N8ddDN3n6k5a1ZxwZ1HqfjbMU2jYfRJT1
p114
aV1FHABLoTTW2uxuPQg2DHAcSm8HXi43NoUE
p115
aV1CWMnac1RNcpreH39Gd4YcoAHHT44XKeU9
p116
aV17QvrhtogkCkosZ3Jt6gwQVGn3UoUyuc3V
p117
aV166hzyXU24yYAtGXFcTevmqpXHLxtZoF6C
p118
aV17fyeoUxcQyTsVd6vax5fobngyCGDRo2X4
p119
aV1E7m535i4xGLfeV5rBukNYEFTqpza4iHaS
p120
aV17jN2FdhiJTfRriNa2uZZXTb4UsrNSwGam
p121
aV179kYxEeAz3GWZzqAWkZtoyWKsjBunjiyR
p122
aV1DtNrdvVaBKKAX2oXJUrVj3X2MmFTZGMUd
p123
aV1F8kmWLbf3TSSJkyKmQ9uxkdYbbR66YWWm
p124
aV1MGjmAJk1FJsiCG4LNGTbC7xH45RRY2etM
p125
aV17r3kQa7udMqJBs4ZCw8HssJ82PB5piTpm
p126
aV1NmG5NFHbBMAbTDt77wpJydCjZQ7JUHEp4
p127
aV1EuaCBpyq38KNxvkZ2zFUQPYkhBwGGKFH2
p128
aV1Go1RDoAZJ1ttJKR4BSxTxJyUVApAHvoVp
p129
aV1B6ouCmE8jQvoXnFEr8bxDQV78k1W29xDi
p130
aV18uaC7HGg8hf7nHDJsHuDUPPL9MsYFgQhX
p131
aV16RV4qzwQ4ahaLsk5xbdvnjMYirGBkN1Aw
p132
aV1BGVUHFKSXkXoAGwkmk7LbsuusyePDjpUn
p133
aV1MzbyKkjQBXqgsxscgSapawwAnySqH7Vfg
p134
aV1BrvdgZyHowQHyYYeUazNtzkey5nr7yX9P
p135
aV1L2vLkTeVn2tDMG726QTbbh6Ki1gLhPcSS
p136
aV1ZHbP5bXeVy62TS9JuzrcrLLZesbdHMJ1
p137
aV1KnBaScmRwUURpom9XKUyyEnHvhKb6YLzS
p138
aV1PXfGCY69Gh9DY3d1msiNsd1aggi5zY8UZ
p139
aV1NWESUqSapvAcPReXAsh1mMA1q1SL1Du6b
p140
aV1BA8eYjkAbZ3Nhg1xhGda2yu8JB479GZab
p141
aV142RYxoqfKYvuAFVVbCtC9WgSHgek9Q29B
p142
aV1BxcngNVvLbbmdbcck3kth4r49oxrEaeMv
p143
aV1PUwm3GTtB57c3D1jP58wNtpLQM8bKeJ5Z
p144
aV1M3UkV62dpYR4USeXJNTK5YLs8tBnPfxqN
p145
aV1Hnt9x3pydQnF5PRzVPdSrvTYUgSidZiyS
p146
aV1KFWDkCtmVwpbUkcSzJ5yHtZoEP7mxBsjG
p147
aV1NeJTmzjRTDJzyNbhQaHcG76hhA6SjL673
p148
aV1Mco1VuqXGpgzFQV5bdjdycHWNoHgCbnCV
p149
aV1M5AH9ztLSWshmUqnikx1PKjfGNSMA4n21
p150
aV1MdurGtg3ufSLFQNuuABtHcqKdyjQJcaSx
p151
aV1K2W6kPyfKyFBhrJ7N4r9dCNivNDnHhDbL
p152
aV17PQa4w7k76o3veJAtjoqxQ8CzweL3KLk
p153
aV17MkyrJfTAF3L9wWMh2LAJpykbXhCfkpCF
p154
aV1EfyJZptt7LfnZSyvjwiaW75e3h571sEtg
p155
aV1J31bFDvf2uq4iYJNZBwTtjxv1FXdmBu9n
p156
aV15QDKU4MjhEsarHCmfNSFWPxfrh55iJTDc
p157
aV18VdK6ddXZ3wvnyzdnAv3KYtv7LgqAeEdH
p158
aV1GCkxFdWFBiuq6rRbvFiSGhQrAExretunU
p159
aV1FeTWboKHsS2ytwZyaSsRMPTZ5YkvovLj1
p160
aV1Dq7YqhwLKu3N6Eqwo4N1HQLjZcynaYJgE
p161
aV15VuPbWMbVCyMMK1tsQJ5kmo77JtHZX5us
p162
aV15XnF45YWvVE3j6x6pY91bxewz54x1N4vN
p163
aV1MiiCmn4tKY4vMAAqjAix6NFbe5s9fLEKt
p164
aV1Q8jabTmWuyAKBW9zMmdy9EWrrnDanyTn4
p165
aV15csUn7tD5jwu9mXvEJPySzyXyLqqFreur
p166
aV19F4PRd4MsPENrJ167qZbpjzDdz6dEHETi
p167
aV12kveCdsXypmzwDVgZyX4Fdu2j9ah78BFg
p168
aV12w7yhqh8ArqzK1UrwFg6wBM7y4cdm36Vn
p169
aV1MZJcjfaKB3si9YLuuXfcany4Bzgi2bMHs
p170
aV1Hm1DP1ZkWJTZzUUaYLhmajG3BaoP7fHnb
p171
aV1Jf7wL4nCoYiaoKiAVgPzFtsPJjfuCj1Et
p172
aV17NQbqvjqJDrW6hFp5TX6oPU1f2yfn7BBQ
p173
aV1KuvqtaJh7zwUkhfV1jPRRtEKdGiWCuALt
p174
aV1LYJko9AxwxgHUmccFgtJNr8vNzp3e6ncP
p175
aV18NnZD1ZxXK6BgQ4XzWAfmV8k2MKBnaTQN
p176
aV1Gi3mFUMo5s2NVLdcgGsQhXDkj2aAwSPV5
p177
aV1DiHE8bgLXPKaknoz8V9GJeEAvN95mN8vE
p178
aV1JVoCT3YuM5yNpxCFhKhXgpMEb4agzaidG
p179
aV1B56MsvXjarRybaJUpVt9bhqsnsLN4SBcc
p180
aV1MEwS8FPUswUE5gdvnysmRxJPtGm1NtmJG
p181
aV1KX27bm76C5tTdcGj3dcP1cxidJAeoqBiE
p182
aV1Hd7czPcy8yQCmSVZmprT7afDU9iub7Jjz
p183
aV1NoCCPL5GkqxqULqn5yn685qbvGUAmQJxY
p184
aV1JHGdZJeV5NXdVRS4Yh54b5ZXkjJHegPe5
p185
aV12bQ5F3EQiFbiQ4o5ifkvsGUSQukeNm4L8
p186
aV1DRCPYWvn4bxi944q4ME2fgSwSwG9eYUoq
p187
aV18DC8iWwRv1MGkoAZn8E3RUUZAqVG1kDUH
p188
aV19XWVQVbBWFsvBzgT3syvphRzcbcTNNhvf
p189
aV1AeR83f5R7F1rTda6vN5vzR63Z8yFhdgaj
p190
aV16g8hwLNrMg729Jfjerz72zVsnKPajRB4W
p191
aV17QxYoXjs9bXFormc9mmmW2zvp4BVGTehj
p192
aV1LWzp2Y9LigRdKsU3fHZnMZmwSuccRtsc3
p193
aV15bZvjNqCKSSKtBoxfds3U8fGiM3RTai2x
p194
aV1MzgXXMQitQm7roNu6Gd4wGZrpYCcrkVU7
p195
aV1MzPBUCujRBm5J8yXsptvZrYswTgb3HhUb
p196
aV12JuMaXLwCU9TW2Uf4XK2q1Ujaoc1h1nJ3
p197
aV18yXEoHzPHngfY93CgJu3jDmxM7zWkyoxD
p198
aV1HDiqR3HybuBFZhkv6SbVdoj52zbcfrjet
p199
aV1PSE3YPNvrsvmr8kQsaTvJXkboNXLxzYQ7
p200
aV16iUxYYrgXmMNayceMmtg9hYzc2ZMy9YwU
p201
aV1Hz5vq4VHDVQWv3X7mSSD1k2GwqeGKp3fk
p202
aV1NtHNqHEBSV6HDFZXtDkYqpTuE1B2xxBu1
p203
aV1KvLna87WXy1BuaBCd9vq89pivBmPQd2to
p204
aV1EARin3xPNonBU38rdmGYawfriUeZYbkd6
p205
aV1BF6Xw39r4CY1yhx4GMAgBpkJjt3GrZJzJ
p206
aV1E4om7nLSGm8HhrkKfRCmt5n9ZSGVrEDdn
p207
aV1KGptLCLDcKYgwrsxMhCVVRpxvChctTT1b
p208
aV15ow1Tmy5mMBrYnySn82wRBgg6WqAoHTiu
p209
aV12TyjjABted3uECYraKFPFT2uCmB4fwSFB
p210
aV14JXtNpDpFdW9EQsVEzLqJFiBtRgLZH2U1
p211
aV14sYXh4oYEpWK88QYZtqcAVA57XpdYA2Hp
p212
aV187NesYswKFZiXdsCBGGrtTTAP3nyh1XHu
p213
aV1CeSKAgToWDy9oETYB2nNbiSjZpuygQixT
p214
aV1ACmve5E5zyG2kFahmMBZchLSXb2RjThBg
p215
aV1MbG9oqV8r6okFZkeJ4sa6zq2zoHANBB9k
p216
aV1FfUoDefgh18KaFkP1T61YKwdLR528wFh1
p217
aV1H2miXzvi9uZMhPmEMWpUXTgASV8NQf16s
p218
aV1C27YgmPnmigxmSaePBC2kMVeKYWQumNex
p219
aV16hpWSfoB1Aa9bUxvKSBPyPGJFMiUTy3bp
p220
aV1PrvUK74rbjWdBtyRgevsmZYYcbt8NFBMB
p221
aV1Hy7i9d1U8GG8rVwcdHPBVZqrUxwykadma
p222
aV13y7HxmxJhbi1zN1cL4qnqQhxH52iKwniu
p223
aV13gsCuAUhRksNAvWcMEx5mKVdrj68Sjxnb
p224
aV12V9jTxLZ3JRmSSxfZ1yKwGknMjNjZuT1h
p225
aV14XnuoZQK4Aqn3kvVfCQaGBAFEHUpw6JJN
p226
aV1GGQXr9jHF8rqwafjCp5HsAFv5NL4AJ6xP
p227
aV17RQCpM7LGdSoPCTzX9PaaPTrfT9Tdty3U
p228
aV1679xg9VDYpqNEZL4YXo2MPZcW1xAqbu9J
p229
aV1McXgq3R5u7s1aGXAAdTyqZc6Y2zy3AM3V
p230
aV1MmqQ35SYd2L3HBkJBmTRh6KtRpFWZocwq
p231
aV1PfMXYhMvtJL2tsKHPkq6eodvLgysKqAFH
p232
aV1LGb5NV8fMq1HM7R8Lv6N25qzChn6Z9S5k
p233
aV17coZ1riM4oJrpJm7ZmnaR9a8aESLrHpqn
p234
aV18DKBYe3nNR9sgdoZgs4WmZET96JVu3PG6
p235
aV18j6Tq3mKC8PwGf3EA796iJGwxLgm5EZjp
p236
aV15SHysyFWWqmeqN6Fe5vXeKTirudNxQB4z
p237
aV1NSwC5rpLcRET2Smfx9i4g6XAw4khte11
p238
aV1AGmn1ZMtBE4mXxTQcsG8iD6VPS2W286fB
p239
aV1Py5SUFUtEdJFCwwXxRAeBQKnnV22ofLMX
p240
aV1Lhac91e9wtneCpKkWpENrEca9vsyP96Jm
p241
aV1GAfFujXSxWqHC4xYKTBDzkTYSSEqgBz1v
p242
aV1M1ba1ALTXWs8QuGMe5Ho8wyzk3tVFuvpo
p243
aV1BZNhoKvAjzjutdHgM52rF7EiCurAuG1rx
p244
aV1enNz6D8Mpd3j1yJpAyK4X6LEVHX5TaY8
p245
aV1Adzq7KE4E7Wk8HceXkipSZ8LEyqRCuieS
p246
aV1JymWeip1QWrM7Ls7tUpgDheGb3Gs8cAma
p247
aV1GyfBteT71MfiQDbXHUj4QVBQDEvuKtz4m
p248
aV17oZKD1zYga5Bcfqng9U3vT7S7eL3w9VcN
p249
aV17Y5k39ZT41gYFwTPUAKLDiF8Yr6xTejdL
p250
aV1E196jc6nD57jrudTV62rFAem1GNuC6pXy
p251
aV1A623MWX9zuEkG4T29FXzkTGLbvXvN3KCR
p252
aV1GY1b56uvbGojcQtinenTWBDRmAiiiv3Qs
p253
aV1GhbP8EUBJKD8JnN3Q2JGTBtYYs44jmERS
p254
aV13QJXkDyu4xWUDFnJSYyXxFPqbTVZuLN8N
p255
aV1856hL5yx6zsz27thLvFP5gPXP2Nwk84ZJ
p256
aV1FVv4hoTmfr5UUpDFNski2JuuKgftTX3q9
p257
aV18Z5VAJE8i6DBmhbrnfaSVANiaLK7yEKrw
p258
aV1EGvWqFhKxwXgnjyeTt7bCwYiZkZbTJXvD
p259
aV1M3yjsDy3Ytx4s63wVPWWELXkDJj5uuPdj
p260
aV1AmYunY8YUiHdvRDWN1JnApFQU4wFWqoV3
p261
aV1C1Zs6KeXiNswVYfo3DaF3GsmD5A35Znjp
p262
aV1Q4x34f6fvQbEjCGp5QB1DjAnZeiY8p8Jo
p263
aV134u8wRMfHWHfZFP2P3kQuHPvYgBKs1JFc
p264
aV1GtNkiPL1QUUaE9Jq57Va57V885Ui2HmUe
p265
aV1CKs27QVaYBrvpVdqnfRvXfHXS1SMN5xjX
p266
aV1ETvtAFQshfTM5SpFm1tVmG8njWSTfr3Wu
p267
aV177N28HwFdR5DcZt3KCkBob68wuKpXN2jS
p268
aV17fnhhiw1UrD34unULaHWgSoyZx8AKyjZE
p269
aV15NVCJvga7D6R4aqyfzNYGEVMQabrzPDuR
p270
aV1HJNRohCJdfH25BFvfutjisztrxAJNnUjQ
p271
aV11UXgWeeiGieW3Cf1ERvu25oRH5JZmp6v
p272
aV1xstiktrGqFuHE1F9YJmL2SFR5By9ygy7
p273
aV1CHWMreAw78AwFB5mBAsqW3taRdEWUHAmX
p274
aV18zmRuG29KF5S3vEMpqMRL7G4rRav7eu5M
p275
aV17qfK4ajSumA4GmAHuwi8KAtwCFv88xfqY
p276
aV1ESNbmjvxeWiq3MdSeXs8KshB4XcRV7T2B
p277
aV18i1b4ywMayp7u1AufcZ7XDwWxSSBnXosc
p278
aV1F6TVtcVrs1QRRrjePdXYTe1sZb9Bhb67N
p279
aV1NhivuKbgtfVPVqqvWUfSHuLePSLH8UMVt
p280
aV1JA5qwGajkJUiHEGTi3RCScJ1Ydqq3JRJJ
p281
aV1Ff3zTzye4GWPAPw1UFHDHGYqVoommzuds
p282
aV14PpGikBbLTU1dc1kMm8Vjz1H1asf2VJv4
p283
aV12e3waQN3qbeF5HBHt4zQj83KgHYWJLJQb
p284
aV1KqexrfvyCYrnRBRAmkjNZXRpR1AGT6WXD
p285
aV14L6Qg94kG8VMy2VJ27XPENSxUNrGuL4Vd
p286
aV1463jDxGHnvuQa7Wudtq9FQDmqFXXqjUmS
p287
aV1AAtHGH4T51faA2nwdNFD9xu2stooxQiNM
p288
aV13AARJRdK2jUcgYikWfG5LsgScyqkWePNw
p289
aV155KU9cMYCoBGVX1ejAjwQ3RwULenvCdb8
p290
aV13R8wDhaAWaupq44hAE6KmgPvUvHnHPgNK
p291
aV1LEdJD8geeNpmCwsLM6c1CLoBg8JmNyg9A
p292
aV1HUP5SxU578fCm5a5S6DahAnPJ2Z7B7UPF
p293
aV19LVVdHauCiN3tSQRmPRD7e7FqrBEUz7pX
p294
aV1BekQxN7F6kzHmzrfE6aihdgTxcvAJKB62
p295
aV1BJ6q7XbmvuCbLjR5or7mGVrBBsb7HW5WZ
p296
aV1Fa4KnLJz48nzYaPLRnrXaS313De9c8faB
p297
aV15UC9haqX5sUTaisfJ2ZsZAEvgBwYFgqaA
p298
aV13uXgCUzkBaG2gRccB6CNEAEcJNvemtQFC
p299
aV1NGLkkooTTg4cJcEnMmsPSYR4Bc1EmNeGJ
p300
aV1ZQoE1VHQw7YfzMpnbZGCSio2P9LXpLYU
p301
aV1M4Nrd3PKFe8iHDJJYttc95gToXeDmVSgB
p302
aV16fA4jx5Ks9C3kqVmbhoFz6ZBaNiBPLPns
p303
aV19gyH3TnuDtjfSbz5YZG7MMdKwmXCLeJdE
p304
aV1F5WntjPYMaGZpvytF8dBGf4pVaVaQHzBH
p305
aV1JGURKpiXkBLqsUKNrdahmqMWgjosXyqSz
p306
aV1MvQ8HTZF6xg5yenCZ3dDn57Kg7X4WiFxF
p307
aV1FES5K8Lb186ZxMZA1UYhMwGzuwDVng2Cw
p308
aV1LJEBV72ipBbQdLt2pQBe3htpmVis7oAet
p309
aV13Kiw6EHadjvczZKdoRa3e3MGTYJrmUrUQ
p310
aV1QCA4KmUVAUAZboKD3vDCLYVH2JdT9nJ5J
p311
aV1CxjFH5TaTyaLtxUvTT3UDN4EsCDMwV8e5
p312
aV1HXvvitBHBfBXcxLLfjG1318Zfo92kMbrn
p313
aV1FEJ5H1ieEBJftfiFMgEin7PfzhhQHPZCc
p314
aV1NcZe616CRpCV9RjHfzk7PSE8wgXssZibg
p315
aV17SeFcR5aViZNQzjSwyaJQv5yPLKr45hGq
p316
aV1H4eCrCf692vDDL9REmgaq6QAuRiJtT2Cx
p317
aV1NjKP2K8c4D9eLwVEAZnL95b3c6j5wL1kX
p318
aV13Rr6GGersXwqsPXgUxqkSzQuzXXQyY4Xc
p319
aV1MQtrS5t6SnWBHMXTMw6Gqm1J4SUM5sgsk
p320
aV1P6ibDEKAhrtJvhKhJBRhf3FgxFLLEfMJh
p321
aV1M5tpra62DWFR8KhB9zcjFL2q59dKQzRQp
p322
aV1B5B5xZvWVYjpJPNNxRgHGnrzgpegsX7PK
p323
aV1DTaUePicjfp1XNakUD7CGYhBJCc6NtfUZ
p324
aV1MB5W7nsi5mP2bdJ3hD36PHHFXJMJ2dfS2
p325
aV19jPJgVurYVBkFDTftTgxGtTkUZAZriPgL
p326
aV1AjA1LyDJBxeHPK4ddcbSgDdMJ6rGh2Mys
p327
aV18qNhDGRA5v5g1oWSqd2jMXYFA4dnCHiTJ
p328
aV1P1avuhEhaQtVuSezmsbZzHExCdoVLFu2g
p329
aV1DxQHRXs5mC6BwxsvGmGmKLg8Ex6WnXgTX
p330
aV184JNvJE3WcWXefZ9dLN53akut4vtJN3xu
p331
aV14tFQyTMvy89EodKfeEysUkGTc4dxaDJLV
p332
aV1Hu3sJFX6YRoB7DEP43TcqpBubo5NbfxfH
p333
aV17sPaFUacDCvokT7WTtmYkoUAUZu8Aikt6
p334
aV1HftrT2DLuKxDN1qGbHRAMN6TpDGb6YS8Z
p335
aV1JJR5rkhFu7aTaxArQX3vMRJWrKdtrRprS
p336
aV1LAzRpE9f5U7GLGQNrMXdk9B34iUBVDyWo
p337
aV14NavAM3VRLmbLpqPTxpFhERL4RWea2WCk
p338
aV14SgAAZGRqRtSVzidV2UcXXfNmH7pq6C8i
p339
aV1FPEsxVepbkTg4sQRkuMuYnRb9uzFJRWKL
p340
aV1PqQ6ChFyPHMGmUFDekPaJVjGgvAXiXn5G
p341
aV1C4JK66oiEUMpCN2bPBtUhbTFn451Ty85
p342
aV18ZTdutV1wTXJV1M6dta5ApMjEG83qvWT7
p343
aV1HVZfQZugjEpqrxco8XCznqcpKpZb7LrP
p344
aV1Ds4ciUCDSvduvbjYM2Cst58FheAC8Tc8L
p345
aV14mrvhFQwL3YAxa7oiaB2mtkYWKBnWps5W
p346
aV1EniDDVNdLrgmqtvS1GNxE5yz3H9FrnmTE
p347
aV1Q7RkkdJSGXMVqaME7X9sgVtToZdBxQ67U
p348
aV1ATWZzp1uLJYzEGyd785zmgMcWbzwbhHGD
p349
aV1MTh2tL1bzUMqCWYXwZS4KY7AnBTyTj9Gx
p350
aV1KeR8iUPbCBncnw91AC4ctZ7qKtE7CcPkm
p351
aV16e9D8V7S4sygd82sZZ7QTKiUgb7hFss7G
p352
aV1JLNXQT52GqpwfDGUcHJcNPLcerCPZAVu5
p353
aV18u3v1PvJrwQxfY1gdk7iY9f1pnhLuSqKS
p354
aV1oyCGLRS4TU1NeaUwukm3D3BY4Garnh5g
p355
aV1NpjrkY922iuLKhA87V7gKYFNsy57y2pNS
p356
aV1H2m6xipZEkvLjY1K4S9BF4jey6pzUKSN7
p357
aV1FT1ckvCABSSBQ9kiiSDt2mABGkT8eMTie
p358
aV1MEWwGzuBMpa1a2pvF59bmYwKsEgpUtyJn
p359
aV13eAcViVeCSJXbB6GNMYfQxkYQdfALFJwH
p360
aV1297mjEXeGSVuKANSAR4yLMaZTRmMN83tQ
p361
aV17Tp7bWzq6YoSkn67xsVf2mMAkHHe6cjMY
p362
aV1H9ETGV6LuGrjG7aFUiUbeqKzcYTU41QCv
p363
aV1H5eWpFkYCRip9N7u7BkL5xucNNTQRvYET
p364
aV12C2Wo8rpafFapsoh2S1qZzJ2yB34Cvs1Z
p365
aV183eM9rxZxBXEV8o9nTTtX3sd9EGhRygXm
p366
aV1GyNo3PDUyTs7Q83CGJSjeDT2xvUAD7JRP
p367
aV1Ntz8YDe7jCNKwLv1XhFUWPjGZLBV4Zvms
p368
aV1BTX9QQsnrZm2b2Y7835MxmBx3mZTkB3Ai
p369
aV1K8TP1Aiiqn8EYJTDv2U6Km2iviK5mCchr
p370
aV1N7mYw61Z8U2gRdod3wKnscVLQNiAuktRe
p371
aV1FXocpUsfyntzHRseNZKkuSZcbrQ59F5u6
p372
aV18ixPArnVjGrvtvJSN5aGZkkKc6iHkrJKH
p373
aV1DSfAKGEK12jT7iSnRNz6Jc89LqRCvvA3V
p374
aV14UdD4WCnmi8qWJLcWccrrqjiZZG1ZzjYm
p375
aV1APiPTzy52yV5Y7DfAfbNAyTDY6wfY9Zwp
p376
aV1EqL5w57ZM7hyA4vyEoHRL6JaDkcXPaXkm
p377
aV1ySUhuXC9aDgHcTggKLmqcKdVzpmCCpWb
p378
aV1D9v5ajSBWVTg3bzQzBppzzLD4MG8g7MdP
p379
aV1FE7zFrGyNFnU2C34a65F5B8CWDrYwJm5e
p380
aV1rvitH5pzKGvHTXMBwB8pLfnBNZVRPYwU
p381
aV1JcRMfiyraWyU37TRosyL7spLLBoViNMiH
p382
aV15nVwDZ746MQLBrnoMQEQuhNLMABz5hWZ1
p383
aV12ATu6gUHfsxN1eCNe7ghgfWuiMbWo273T
p384
aV153WfNmLTexeGGYc14BiaC2dC7BF1Hoy7Z
p385
aV1JzGS6n5uYAQPJ642Ee4xGNx5frw8DGZ2w
p386
aV1Knbij9TwqbG72Go5xhaJmpbaCgD4VYHx6
p387
aV1yaobXsYawmEpkBeWkXPifpnqx1rHBpCt
p388
aV1DfFJh5D6ifjEFz87kHE7ur4qenxeFkAj5
p389
aV1CKh3duiL9RHS9pKYo5s3g1Bur6e6MQdv3
p390
aV1CxGTaF5PZdCyJaYWwE8eBnKFZkWrRW2AP
p391
aV1CfKvCFcScewK47h2dmRjoPdbcQo6GrXUS
p392
aV1LWeNm7kPBBq6bKGH4PEPDoQNfFnSZgXt8
p393
aV1NCkwKF5PzL7DZF8ZrBs1nwsxSPcEq6wVq
p394
aV1FqkKWRdSM4GGKVnpcxMqEqPXkRMxvqg7J
p395
aV1DjNSir5kQMJd49MoNqG6DT1wQNgJFdWFk
p396
aV1Evmud14dXrU3kQSX7QXsUxbwYRWFCwzaE
p397
aV1CfjPHfummDRbtDU8ymrnsbYmBT8LHGTYo
p398
aV14GiD1fEGDuoeDcMXtKADKu8eys8JuJkBt
p399
aV15KHS3sCn2TdHoMMLLZcz4vGtPP8y4Bs6z
p400
aV13mtFhXDfScGXZK1YpgKDeH7WSWxb5PPgs
p401
aV1PUWAN3Gwt8dNm1r67gWx62gm81iP7HmFj
p402
aV16dvAKcZHaa3BFKXsrTgzKfm3SY12vMu7v
p403
aV1LyPoJgdj5opzh8sGFBCNQuoJLWoQon7P6
p404
aV1Bvb7WzZZb9F1otFswUo6H93LqfvvRmTWe
p405
aV1FqCW12thWRmtTNNoTbwVb2NbddDeKFoQA
p406
aV15CiGd61LNFpbpL96ozQuZR7kVDdw82v3k
p407
aV1FfNJ1XEFuC6Q2Rf3d8GfSZgXVDXkebSsG
p408
aV1EE95ipazmmP1TXfP6LL9NYUgjhJUb9w3C
p409
aV1N3skF79TH8DZ2zx1yG7dBYnMq3e5pfCMi
p410
aV1MkUf1oetyYidfh98NhrWvXLSYT2GXw1r9
p411
aV13SyJN4cUkTMjUHRZSswAhKHUXTmahGLub
p412
aV17uYXdPcPDWZ8synaQsU6rdhWugwceLRcK
p413
aV12WW6U1rhwV6JEPmXLcdZn6koK4L2T8uTX
p414
aV12VKt9Fk6Fq6LLJ5Rmewerx7VV4C5F1vU1
p415
aV17ysxd9srnsjojqCLYqWxNfEeRSRVmGaFF
p416
aV1E5kKMjXkY55qaDah21kjfk3udHRopWbKv
p417
aV1Nxuy1vv2wfRVWK73bWR5z4AHj4jwkU1Jz
p418
aV1DDpLYUd3WuhYuYjeamYVFG1grF8Jqe9S4
p419
aV14EbXYGs8kYrJwTFjevFNgww9MxDWhvMoQ
p420
aV1LSW1mKWJi9CNsmX4kBV6ToJKCAAc24kSF
p421
aV1HEV8w67atzgenb9GQCz5tdd5FAoRn8Tx7
p422
aV1J5FVoT96aCiiNs9L7iQvaQAx4UHyjZiXq
p423
aV1CYbkzGTG5XhDMwCAdEyx7NHEV7DuRAuaN
p424
aV1Gt1p4FyAMbxqXkQbfFixTRgtKUV53MQWc
p425
aV1AT2ZwdJLs4z3yqnvWmgdCwX45f5UuKe8G
p426
aV1AFSM31vVFkJY3V4qFxrYfvv5QRc81Y7t
p427
aV12JDRZqp6rHSJB6muEiVKCXH6Yf7vdR3cp
p428
aV1A515mc5Nux42pU7ySSm63JesCU4X1uZhR
p429
aV1HkNohwrEKavNk3iQXHdPR3bbRsxRm4YVb
p430
aV1LeXjPkuJohPczCkDyBxmQVpm6TV4UeZkQ
p431
aV13gw5nh94gC7PSjL13JLFrTT8fmRNVBr8S
p432
aV18c8w1qvMmXhtpT1E2ibYP6PxiqJhBVHN5
p433
aV17xSLawY3o6ov5DGD5SNARX9Pqn1BRSWev
p434
aV14bGF7poABzBpJKh3wdKiHCuKkc3ZnJRRZ
p435
aV1P4uC612SsyVfEYoh6TwoDzmHDqGZyZNC1
p436
aV12mJQN9zStpQhLQgU6EYYMTqRWVA1FYzdn
p437
aV1CkMEK8xgrXGcPMF3UvrYW1qVzS3jSXiiF
p438
aV1LoqSh8B42sA6RAjPQ3Bbv99yVqRJ1xWbT
p439
aV17bSQ4oBxtqgvcfZdi3crvhAZ8xfTDpRY2
p440
aV1KYQh4nPYrhhUdbYLypUrDagcJzG5wz8Fn
p441
aV1FuhQwjsTMfMs5e6ewvD5aFvTbrvYa7aTc
p442
aV1HPfL4gXi5Tniwk6tayNZagKNFnCnXwxbX
p443
aV1Krg2CtsrWhrc5idHWZjWtburM4d72KG6D
p444
aV1B6rpr55qQu3EUMtwTp13XdydwFxexCibb
p445
aV1L3CcpDTEQx4ZgvkQyMEicKo63dt1RCURc
p446
aV16wSUUYpGyGxjVhSvo99czp4v5sfqT9pAG
p447
aV1JBZtajHCt4QUCg1Pvq6FLosNEUViTCnbh
p448
aV1M5KdbXHQmF4EPVUHmJFCCox1xyLwjWaLC
p449
aV1Dak6bBe7qJmgcwmYECuGvLjET7TZ1n327
p450
aV15GaLu9oCk5v6J4gT8rgSbftW1fED3YPy9
p451
aV1C1Y8Q3fr5M55nuUtkk9FKAJYTLpLUhg6s
p452
aV15k6xj5nu6pf64tYuhzfUQmFtrWsoVtpKK
p453
aV178wacUvHT82prrgnKDfQWffea7p8VHbz2
p454
aV1C2Vv2atpaJZeobRzjq5QAVPqSgg8KGgvG
p455
aV19Vjn5ExN5JFWAMXjWRGai331GWwdBf5uv
p456
aV1NSapF4pqaiGNMpVnUETgtTXonf2o1d4hx
p457
aV1GE52tNs9Gh8L9gMxDWkTZcRQPFApKD4P4
p458
aV1KnuBMf3KdtrA9CN48BKndr6SaLiYBmrJy
p459
aV19Urardumxk5jo1aGx7XnTXEGS9Gd53PzC
p460
aV19JWeYgGxSqXjsitRRjbrGUcWqvrkHzADH
p461
aV13bWRmyuHYkgs4To3AVjfseW81xKTV5xn7
p462
aV1C6PYa45zBrMAxB8UvjjTBEqbdH55NrY2m
p463
aV1NLQHjGn5aZsFmDsbNXQXriaPXvDakssmw
p464
aV1KMRDWMAYRPVo859zipWxrAx85tFAq6HoW
p465
aV16WNG9r8h95fCwUgk4Ark5f7UY3XspTZRG
p466
aV14sd7TEDGv6WQkDohTavzMYcuxXWfhk6jJ
p467
aV1A4j3Qr5oMyUhptgRwE5YBzgDeSYSQG6Ex
p468
aV17nv51u8qGEXba6TekapDY3xi11ad39BwY
p469
aV1DRpH8DRWnXfuYQp8HZrPMWCJTxBB6MohN
p470
aV1MoDGZExNHCbyJRNmreHySFjFGwSbaP246
p471
aV1B436jNPRCrgzuztLYdJc3jEWidCxDf9Zd
p472
aV1QHkonxTGqhhwZmEPYnutGAFe3g5VMwboF
p473
aV1BiCFA8mEmNgMmdUd27DwA1iuEqAZo52RW
p474
aV1PsH391ULeuay4MQDSmpgxREpE8JsD2cWb
p475
aV18CjoKc6coAZ8JYMbaJEemH8VjqMaFbokn
p476
aV1E2HJsGLc8Pc14fCCKdwZTuJXnDgcB7w7p
p477
aV1HGduNqvaqsSD6427W3XkSUDV7nEoBrFvw
p478
aV1CEVHYawtkm8SGWJXvCuo7FXZKdrzeL5LG
p479
aV19odoynrt1kXMPMq9iT2tHoxNuAcBNynxE
p480
aV17d5UNN82Qb5M3UM5X3WyzHeQexS4EQpTv
p481
aV1KPJmJwGY4W9gMcQWJLLpqP11KA1JaPWnU
p482
aV18rmBkrqNa74v3Q74tVSXyCn22qAwXguCn
p483
aV1GquqCUBZSbwroiXaGcWCQTRojBozUvrtB
p484
aV1NtDKkrGM5p8YFemLtyiKCJ87LjMDiVah5
p485
aV14hUerJHpfUxTgtjz5ZYvuz6wZT387uqta
p486
aV13T5aQeBwpKdX5SGmALbBUQtvUc3vgQHKS
p487
aV12MBDeFJnFoYPr5Ejn3AWWTXdSXWV2DZ4Y
p488
aV18FjAcpfBwrg3woV147Cz9zn2aeFfXyGYV
p489
aV1NtLsWFbMKec5dZT5sTpwUDBmtd9UUdW2o
p490
aV12ktYRSitbjZWsrcQpHqGoZk3HthKhfZXB
p491
aV1FC326eRosuBEYxLQ1FqYBhibdvs3exm2a
p492
aV1D4U46ax1Un6ECb7k1aHmoeM3kq6R2dT9u
p493
aV1NkUgjZz3Y99FTn2ktwZwxecNiMFwQeEsa
p494
aV1FVcUNR6gDqYH91EuMBG6krpNLYX4UCp72
p495
aV1DF4qnLAknydtFDSyCR71q1CByBCDkwAbF
p496
aV1GHuSfeN57KMzQo3MFCz9PvTQr37cQUMnX
p497
aV15nNngsu5txKkcyw5SmioxvC7uWi7Vmyjz
p498
aV129rXRRyiE3g3ZwyGv4uXBfQM9QL4PAGXo
p499
aV17skeoBRa3puJc8Kxm6dLw8YgdTURbAc19
p500
aV1Q2kQsDXAi16fgf1oSz9masmx3N3fKvGZ7
p501
aV1BGQcR1U7tP87KFAhD4EbSNTRrxg6s8uUb
p502
aV1598428gazupuHKMC6EC8hbBxgvumCPUmf
p503
aV1HgL98JjXNLDbc1uR8qDnFyj5HbktAkgyH
p504
aV1GoH5bCZiQxmTeqNhs2FBuis9V5DLkHuZg
p505
aV16bFEvJAG136yCK4wCPN6AKcf1h9aHX4xb
p506
aV167Ux4fyzBKxv2beG1FnSBv9DBcYoW3i1B
p507
aV1C8NaHkLxz8k4KDSHMUTLRCxAweXUe4x8N
p508
aV1KKrUDgq7LYPSrHysWAEtX8ipETG6J7icJ
p509
aV1Ph2atorqn1beY61127gt91jgxTsu7AYAZ
p510
aV16H2Up2kKwQCwYpxNp56ujeYHV37gYRwAJ
p511
aV1JBMZiQoVfDdQHMKp6Gs7yzE221PcM3jK5
p512
aV1DD7D2zUXsVDmWfcZmT4MSBji2WELF9bg3
p513
aV1MCCbKBv2YLyChaJg9XBNYS6vXoM2iYKCj
p514
aV15LqeWL7awdD6QcUMS69uW8pzAuDchnPAj
p515
aV13jDNuxc1QwGLx61sGDUyvw4LteYCRPagL
p516
aV1KvHoew9WdgJhtN7XwvBKnepfqe91DWrRP
p517
aV1DvTpyMMd7YfqHH5z9G6jPM9DnyHjzk1eX
p518
aV15NW71DPJzWZ4YRJSGdXNdXbpBK6tC7YsP
p519
aV15Q9j4Sj7oJ4Wi4wkavGzAFsZSxhzEzpXE
p520
aV1HbRWUdqePwNioEPtsdRoUgaJ6QwEiA4e
p521
aV1B9R96X2djv14nmKND9QKbGWsVV4LhtKm2
p522
aV13xhssz7CRarrP5vCBh46xkDpaPgcrZcA1
p523
aV12s3ykzaSvmvehNk3HaDQyTC1qm4din3Z6
p524
aV19tPQ7UpEuLuarZMJjaT2BHGZAvD3TKfWy
p525
aV1DjH7uwK1xfZuHtNt28qgRvRzhesTk8SAQ
p526
aV1C4ECgTYt29uiZM1rhqidXohs4KCL36HbH
p527
aV19f4SLygCQxVp1G4WqnW5EcwJguKo5yTtw
p528
aV1HeZfqS5SEeKzqmebKAAdxspsoJsvTRD7Y
p529
aV13DdWHZGCadVt5dvd7gNLGCgtbDt1JF7TG
p530
aV18PnP5Xd92rtk6D1z8xrHtPMY2nDUE7SNa
p531
aV1EUcvmW9Q9DiUoxhsmvc4qLS7heEmoscXU
p532
aV1EK4spMZrd6oyGG4NrDFmPit68ETSdKKoq
p533
aV19bobeY5NwEXfbLVWejWuv4Fo5C6onLPS5
p534
aV12zzWU4TXwCuDEnC8jQj6ZTHwBiBDr2Bdw
p535
aV16ehUYoBUgYVhmRSW8fM9HU5YHD3fmUxrJ
p536
aV17gzKg7MdGwNez1VNsYG568hZiB8ZJdCqD
p537
aV13YBbqs8417ngCGaNCVyaibt5dqHbpcys7
p538
aV16oVnApbvwJ7tdSGvBxtvzUSQ92gxYZGK3
p539
aV1HbsxCxodsgfsPpSfd9kqYGJR1H3uFBFbb
p540
aV12yJYHSrwBHGYV2QWLXGxqDyghxD2789W9
p541
aV16V4XLc4oR2g1Wz91b6bvLRKuU4f8s6fn9
p542
aV1ELevjnafYYT9FpVNTNvzTy8AcuLVBckk7
p543
aV1PV8rXbmTkaSALfEci4Vcjc1YagdJi4qwe
p544
aV1J6je2VwEy7hKDUVEERDoUdUgbi8cutNYf
p545
aV1N4NCUVz3SZj3Vu1uNpChgjdeWW4Y3Tzbn
p546
aV1t5D5LykAVxxDxsvbj2tGY5F5xfv3cg9x
p547
aV1MjwfBGzYwtjisB2rgZq3kqokGuDvX16S2
p548
aV1EtrL1p8zNg51qVeLmr7dBMHLgSbHXJJ7M
p549
aV1H2t2xJhuExaHTpJgE1qLDseqhNhtw3KxR
p550
aV13sYFSTSAVrgZYT6BTLMS7KF3kjXwHprQx
p551
aV13oF3bR4LvuLFw2h7a5jzKu6DZHFVMMVpy
p552
aV1MvMvf5fHNPkhQzpSCaywS68ekY5DUszGn
p553
aV1asL9zKLFwdDyUiqi8RSBFJJ7RCRZWzd5
p554
aV1Co5oQHA1F9RfFK6qgRJ2VAtGSmqfCNhoK
p555
aV13vn18pJwESK61jZE6pG8JqnCBadfz7Xqf
p556
aV13Rq4KtG111dLj4g6uSQvdQjfVH79DVFf5
p557
aV1BE3JXcvuSK82x2kowUZ8ZRMsYNveAgVKe
p558
aV1Ad1DwVZqToJKWA3x8WbAFK5CdJr35Gk1m
p559
aV18P7cMYmbLvNgUBVWZncX2wXxw9Up24NwW
p560
aV15WVXpwc7wXPwx2udTNU9Gb9gwmdRHYDWQ
p561
aV1EHajg2c4BuwbxbrE7sTzTaiq5csPVfHP9
p562
aV1FxQ2chbmGGsjNrbbATCpi8dfugpbJ8ZB2
p563
aV18PtdtrwKije9hX56yndD9iLFqMHeER9LR
p564
aV1PHUEkqY2VESZxUteQJBZCgE7L93LComQy
p565
aV12pddxfrhRDvRiH8EbV6P1fFtyEmVdWL4w
p566
aV16kvb3seftZkZCu9cvEicPikRjKNfLHgga
p567
aV1MSy9Hn4ZJ1YGEtTbS4g2PW5sAtCNNiX6P
p568
aV1N7b3H1qJZb2fT1we7BFaAZ6brPvk5fsDh
p569
aV1LhwHKH2J8q8tfQqJ4N8WtheYnDtzigQRW
p570
aV1D8RcbYYuofxD85SopUjRQmf16DpswnG8m
p571
aV1CqbZNPsBpWNqiTg2DvBKER1BHUeh2HQFU
p572
aV16h2Sa4gT7UzbYetS5SRgq4U41YojdTt9D
p573
aV14HsBUwgKoGeHNWzzjxoUHgBLWGEqwHRUP
p574
aV19ZdYEpC5bNWxFAwVWuoroJqC3JRRdFm31
p575
aV13uXt9GLpxWs8j95idqzPF2ur2dFcGhry1
p576
aV14Qvg2K49FrKVvC4C9iNwwJQJYdBzafZHJ
p577
aV1AFhw4j2ygvMXNbQMz9E9L5xtAKbjnqdjg
p578
aV1L2icXKCKA8w5Z2SuZcSknENW2P492z2HS
p579
aV1FMSGfoydFZQ1SZopLoppDLh1Duo3yTBHN
p580
aV1GSmHq9TVtRfNqJXvxTXZqkAA23JvxmVNm
p581
aV1CdhZGzc8cMcgjjaN2MVEovp7sTVhzsXK1
p582
aV158WLJWALyMEHU9WQDbjaGcqcokTB4WxTs
p583
aV1D5j6nsk93Tm7rVV53DX29vi8jsNYERHxG
p584
aV14WGyG63ZuAtytobdjgCqrMsbmXPuv2rDK
p585
aV1Aqof1YryMwu9oq1iXUHeC2NHhJTXEM276
p586
aV13M3HwevAwJfAiDYAvSstKUijD9U4o6JhC
p587
aV1H8jeJe84XvM47SUhpMZuLKXJ7ts6ApWEh
p588
aV1BofsSyYTw4L6QcMAyvzLvuSargQpcMLq3
p589
aV1BJxJwAebmRuAbHZWEJEzo8oBCxZAHVdKF
p590
aV17C5MzdWzgqUBhhjsPDiRE5Tq2uBmzzQe
p591
aV1CPR6AfX4RCUCroKU5ivYfrVvXnwawqD81
p592
aV15qHrL32vXRdgjk8dcrQMnsZADjaJQLjLi
p593
aV1JvejxJsdVZMvtP7Sbbvw1Dfbsx6QsTZ7K
p594
aV1DgU3n3xshXTk6x8QuqtnGCQiA9jhc6uHN
p595
aV1AQXUTG3RxTqyyNAxV4U8xgDasCpbpsT7h
p596
aV19z888pLAhgR8fMyrcvhvB6YzxPzuwiXnA
p597
aV1CC3dFHCstytc22b3SCVCaZg6Qj9RbSEur
p598
aV1A1RacgRNcCiP5oHhoT7KMh8wNYDqJ8Dd5
p599
aV12XGgRt3rxvGYKVCgaFsQJyzDHrdjAznAu
p600
aV16j3dPaTJK2srCwrRHYpZbSwbRuDr3ELUr
p601
aV1N4tT2JtvZsk3XpbEEUNBtNbyCjFqboF5c
p602
aV1638TrHwxsP7ebwViUqxAXdNUgD3XXunGV
p603
aV1MyEZDDgmgnj321MMQGg2Tm1jVmsmZBpgZ
p604
aV115n9oFwjh4MizXLpbPSPzJ667FsSG1zup
p605
aV1Jn3LXbZRKkLH97a5KvqVQ7GPTEzAXq3vc
p606
aV1hY6Zy2Cg5E6wPELeBNT4ua73aNjg22rT
p607
aV11G2DiuFPxo61b9p8LjxB1C2kf9ga5GvR
p608
aV1PCp2xjJEK5VFyP2sH8ETHEtKrA2XdToyc
p609
aV18Qj3MUZYN885kSUTpoYbd57E2TBUzyv8n
p610
aV1F4pErt45vhg7poLUwmbVzCpCYRgNGVxqH
p611
aV15HhbiQgFCzGMTixkxWxkaGcuEtGjrV5AX
p612
aV1HdPRKaqXjvwxTqKXeNn8AQag1ZHezCK1H
p613
aV12WqbxC9XnypeP2akWZMqpMUtigjFdY9fe
p614
aV1Ku185Bbqbnow2m2n4QGCwJrT3ZadtZEFt
p615
aV12f99C7Y6SnnaY5b5arhmDm9LfDWzmAdMx
p616
aV1Mdwvx8BzcA2saYLMEjwP6SBMNjkBtiNoK
p617
aV1B2CPtUyum98JF3ws7xa4B2RpwRVjULxuh
p618
aV1ECVdStq5Lny8ZtxUth2dvmatrmuTCECfa
p619
aV1NW7kA68HhmZXSJoqRrek5qi7ngtCuqKG7
p620
aV16zptJPUbE4Jvgtx6FFcSm2fww2YYUUyAJ
p621
aV1GFrTyhhtMDdchnmUGuZkREvEN6eR8n4wA
p622
aV1MKNyXtCAJ4kzwKkbKX9faEVPDjvZNDPSv
p623
aV1AZt2cdhFR7MJ3rCWuNNavhkdA8nazVk51
p624
aV168HiE3yWyPoNh4HkWryujQqA1yBYD8SU6
p625
aV16FK1QNHUWRpfdAUpE78HRsoJ85jHDUv9G
p626
aV17EmTL2WTnbuvbrnzAfuaYKVLjUnBkg8RM
p627
aV1KByRefuN29TMMHe64z6D8a2mzi3LwVxqj
p628
aV12696HRcep5Hrye3m94TYYCUnmk7EDTnUW
p629
aV18AixZBdWJWF41P3obQHquZyf1Bg1cB3JH
p630
aV1KcVWtzkfoPNhGnsqo3hg1sPudJhGny2mB
p631
aV1Bi2soaRrEpiaRqykS3t6jUxmnJsWJRiPr
p632
aV1JPPckMmxJco4yCakqe26AS4chTi4KE5wT
p633
aV1KziGVwkpY9hzbzgKZ5CDGdcbhju8Cnk4z
p634
aV1Ev2EfHpVmpu8brBsMU38fPAB4jfU4UcN5
p635
aV12rDfigsAYL47s2zwsmRj42jEdL68t3gRh
p636
aV17oyDkCxuAEtRPPQxqZgBqiHQk9bv6CaMm
p637
aV1QFHAKsWf98QS8YjKsE1SHscjSGx4gqb5R
p638
aV1DL4Hjmar3NGeVvbTRJ72erRSw5FFEmQkt
p639
aV1AsBidHhhRa9DBkFMWxisEuLdZ2cDX4Pvh
p640
aV17UkppW79kahhexPd3JBbjst1N9PGMLsdc
p641
aV1E11PvS8PCa8JGsyHXRfC6GFoPKXH3rMUA
p642
aV1EqaSgz6Gw9XH9C8z2AJzf64hP1PXv9Z6A
p643
aV18y1iNyTSMkb4grHDUyUucK4YQgJm2KQs1
p644
aV1BFzafgsAh1jZruvJrAQKhY75CrR43wEP1
p645
aV1Mtmw2mAmZwy3sS517D1DYwen64qt65FWJ
p646
aV1M2xDgWHYNXQbCx62YgHacPU2Af6HvBEHs
p647
aV1Ph6SvjB1f33snpk1LZMLFfTk5jjGCf1c3
p648
aV1F7Ncce9UMBQchtLr7pnGbaUryykrbcYCN
p649
aV1GK9siQ9xtbuBWj21r2SJgWBPjMg9iprrq
p650
aV17qtcMUwcm1Pm6YyayY3PbbmoFoJFncZgj
p651
aV12fLHz8BE2mnDKgqo2LBKBYH6995fSNAoJ
p652
aV12wjqbtf9pusNAgcfb5cqN8mvAousXQsLi
p653
aV13NUhLfpjd5JNkvJd8NAR6cC7ezdhcRaKN
p654
aV19BXvN7xfF6b1J5uC211GXKA4dAQ1sMAZv
p655
aV16J8CiLH4oDEETp9BxnbgvHXZXZg7SDa57
p656
aV19vfrspFhAot3ZketM9X4abWNifArHBHse
p657
aV1QFitegLXDANGsenHjCbRutFL6fykorde1
p658
aV198uM192dsuSzwXcnw6VyqJ9QNir3Rb9Dv
p659
aV19NAAH4iboyRjwaLkJVWCtAJJcTg5XHM3Q
p660
aV1AHwtUEKHgLjcmvqGYkA5gcDis2UerKVeN
p661
aV13gctTV9rctBv9wKJoN1T2dsWmnUAM4UTw
p662
aV16M21JEuLRSHQzQ47GxwGYKtbYLuc6gQTL
p663
aV1MsWnTHCSb997S6VyYiwrDv2eaamthKYTd
p664
aV1PoZEvRr97Unipy1XFa6k59KvEt9D8FQ9V
p665
aV1HonksghEJtNEnMaShv8LFePJh969QFKoB
p666
aV1HTyzypyVCea9RwwjZ3Astcooe7zx9qCYp
p667
aV1KBaN32QQtBkYrZcgLeuk1xCHuV4H11WET
p668
aV176DJ2w2dd5ZVK8kEfVn7BGq1Jd7A8XZnq
p669
aV19ZNZjQSPb1sbtk6oi9BEw7QzgJzbDk7tY
p670
aV1Efxjs48qfjGRGZQySdDZULRzMSXV5Yb8q
p671
aV1F5vw7Egd9pf9NNTPKE6k32PdsT8aqcWQT
p672
aV1KcrW318Vu5sC8MjHuRdBc6FoM7CcWECVi
p673
aV151pEeXim2aPW9y9b8DFPnFGM6W8CtK73U
p674
aV1MQbYN9hNGqYGF5DUcWuq3WeurrZLrFTRK
p675
aV1T78SuAR3Qxaf4AwLWvHam3fAAig3UMgt
p676
aV1HHQq2K65CAhWMQrmgTMK5QA5WDK67uesr
p677
aV18RYc46KZ5qRTroWq2qyYfGVYqNrwyf4r5
p678
aV1KxEWRDjdaYXjmkCaAwMBN7yiipwvUVLPt
p679
aV18Dmp2iUxYimN2eTciG63k87s2EMpsuU4T
p680
aV1HCeBMf7Je67S94e75yuw8pnj2uPmBmkia
p681
aV1BL77Y6Tj9xPJPpD3QZExJzPAsE21c55a2
p682
aV1Nps9ecVH3e2Ak9bS7JLgvRViPX6S8D5HY
p683
aV1BTMvP6F4tsDjWZ1pNSJ2Ex4eYhqd7fuH4
p684
aV1Jfw8jkpijZn8xJSa95B9LhXK6SwBby9FM
p685
aV1KiPx3pgHYvLoYjKbvgnVvgr2bsYsdiveU
p686
aV1KDCumSNMXdkEckkDza4xqWsan5NT2dP9H
p687
aV18YRcMJpdjiLJyRRCgXwWYuU7QkoEYsPJG
p688
aV1wJVAruySS2AR9FbZZPndTt4nEX4Z9zxf
p689
aV19cbeeGPjWJmNFe6A1G2DPV6YRh1WrdSSj
p690
aV16kLCiTpifWB36CSv7QRZuoTTj1jFmSfWd
p691
aV1C619T3rVuwdsTiT3ycr6buwcc8jvoQoMP
p692
aV1Q48zvBQcDiGxy3VwqG8ar6hCi586TeQtW
p693
aV1BjYGjjkH9LJiHTx4qSLpTayi8xJoYXWn4
p694
aV1L6iLGH1WmqpaEAtpKNmjA2iZJwziZ6MqU
p695
aV1BF6AijfL4j5axNr9epKitAuvUNXFdZGe6
p696
aV1Dd3MVgNDdyiZEbsr8XSKprLGXEeHZrx4q
p697
aV16Bi3pwdhBoBvFjkgWVcHpvVaASZSmbz56
p698
aV17qTwUyNcUV4VJ9eLjqgobobxmCfaeQBoE
p699
aV1QDidvLu4Cc9wDny9ZTuiJKi2Snh4emsQo
p700
aV1NQnK9145J2gSR4cMbrCuxWaeqW9HDAns2
p701
aV15wv9tn8nBDV2UUfQNtbnWe7GSaszZ22vo
p702
aV1PQ41LQcCWUJU8gcrhPrr9SZnLp8wzhq8Z
p703
aV19AJsM9ERCdBGmd82dWhfAUxSc2RFeTxba
p704
aV1GG3oVqDGNWTSuN78dm5aUeDDTwhK5vsEB
p705
aV1EFnvwPSyqfGVWn8xmTFSMHEZcJ4jtVLUe
p706
aV1FbGrCcT6ZEAGBDu5xFadVs6Nikta6VF63
p707
aV1P3j7nNPmPCjEas8vCoSSjaztopP9AuRs9
p708
aV19sBnAccvTk12tgx4AqVBGTFDQFsY9hg33
p709
aV1DzCwC5NLvEuVcbiDypDsn28AV9ZbUYVX2
p710
aV18sQy7WVHewCGzSs1iKopK2N6Ghgd4fit7
p711
aV1PyQVmM2Khr942M1yCc7zcfc4uSDHoX3p2
p712
aV15u8g9jiccRRe5C1XexM5t8QteoY5JMQav
p713
aV12hrWYnUTbYL9Hpue534iVG7PDXvBnfxp8
p714
aV17fpzqz3zU1mv7n1bcxJis3EXraBrhCrmU
p715
aV1A6rXzmqy9dXyudBoJmVpKsmWdn5Rks6L9
p716
aV16vordfDVR6qzSWZRq8JWZBEbCm2nBAQx3
p717
aV1E2st5mpjzkRK7YVv2DZE3z4C3SzAxsJJe
p718
aV14M2is4GEV4L4gjJN7MmQGSRmRKZwMumhp
p719
aV1MdQttLVsB15V5xiHFimSYhpYCDPQLQ2EA
p720
aV14JEDdHi9V8Xo72MngWz2Ap4bo5viwXsjx
p721
aV1FuNBCEpnBzV2i1dH1yAhAST8Ynzcf2bdY
p722
aV168ZkRjzFFUfA2FckfvSbHsDGirZf6zd7p
p723
aV1L5nv4uzpNuGqfp5CNyLkZbrgMnA95Pnha
p724
aV13VL1RNR6UqZfj2Y4rhrgY8QQGrXmbbmpR
p725
aV13ziUmQLmsFQ44ZgE34vfyjBWA4YGq8nA6
p726
aV17htEFH6gqqBqWGEjgWF7gdZKsZvcoJ6DW
p727
aV17U4n9eWskJhj6Exiq7aE9pBsau3xVgHvD
p728
aV1DoEJSjw6CYqoy6rqGU4QD9byGjraEgcA7
p729
aV1PYJTU8kx4gd2tKqFuNuAGmVBVxJ1xBS2F
p730
aV1MzdsPsx3ZTAcxkGzQiEGYu7yJxgdhnT7y
p731
aV17fxF8bdVwt9ZH1vrfRLMGkbVMYcKrPDCS
p732
aV1Bacncg9xHVUQSncvkRt5yhkB8C5SaV1TM
p733
aV1CVyPc9XqdScXQPNY7neR5bfeFF2PK4EqX
p734
aV1LTcurU6vfRFSy2fm3BrKg69vdcPWmb7QH
p735
aV1Gghvcf9Y3E1CQeLkF3XP2to6ERr2C5dxT
p736
aV19TLLy7MxcMEKwhU8tdpv5JiLvLrS7C6zo
p737
aV1K6LgK93os28b6dpc2y3fBUdSopoqjspYQ
p738
aV16yjFdz9WQsBQxPp5eQpDuai4haCUuBX1f
p739
aV17JPEcbaa9anMUSohkemaMJx8wrR9dPDfJ
p740
aV1CV8FyzDUeqZcTnMLye3y4tk2MeNwB8M9h
p741
aV1AuWZGj81c1A1ryuDdMGGVmx7vBfq2GqKH
p742
aV1B2ic345YWXAHYrtD2WwXg84VtW6vhUXK1
p743
aV19VnoSXvZ55irZWq6p9vKLi1BUozGG9n6f
p744
aV19u8oxGMDkJJprzVBaDE8mUnfeZ5inNW4Y
p745
aV1FoEdzqC6RqUgGECazY8ZTupJdgJSCUntU
p746
aV1ERmezGCoZdLjJ3zvhFeGHuDpm8kzJN7zp
p747
aV1ENCW2jwAkRaobuYXiWdwEQmGC1wtChE39
p748
aV14N4EFVsjtcfmuBkzPcvjrPKnY1sKPaXEr
p749
aV1Cfki2LsqYyUNZ7YrnELsiJ77xVWNYBsh8
p750
aV1NLg3dNKyLUQvigChGLLx8TTJrf5Dk94nS
p751
aV14ywQhixubPEMp8yZ9wjuaukGJMgVEBJBu
p752
aV16GhuApmEqvVtgVAwuj9AnnQCqNZvGMAfW
p753
aV17BYjQvAhQo4BFFCUi6bURR2WudY35etRg
p754
aV16iA3LAWpBtKrkPstbSg3Axw3LCEdCni1n
p755
aV1GaNkg6SyXG5gCJNf8b21A4dFPPrPCQyAL
p756
aV12kCG9dKUVAEZWiDRhk9TZZtzJh7QUjajC
p757
aV1Ki43fZMQV7MYCfFHg8gmpNpjDz8Frwj6J
p758
aV1BcGgyx9i6CGMgUqTBoR2AhRaVg5J3Jm9f
p759
aV1D7dDLB7td6JBzBoUXkguTQjw36Fxo15Dn
p760
aV18ZGENA3yCnqEHST9af47CaXXbnHYUndp8
p761
aV17zbxtuzzRp5A7AKG7VeUWsEYPw6Ky3FtG
p762
aV1DBfzmwJEbPj3uLXeBu4QnpB7eqVKq8zu
p763
aV1JggsEpWnR3FUFwsYyL3TKcoD5Piuu8NR9
p764
aV1EuS3oEdFx5WQ5rUvCubWKKAUouPPuHkE4
p765
aV1xNEG6jZgSmo5NkHgCNkVJKfoyMvMvup9
p766
aV1MqGPg1ape3sq9RUtuSkfbaDsUx7CXCfk8
p767
aV19QRuJAvP1PFgtNZZBo6Toaa8ZKY4X6fbD
p768
aV1P71ByUhsAhqRDHQgRZS8ip3GNEj8ZPpoq
p769
aV1QHdSJRY17udpcu75CQX1w4Ak7AV2cRdLe
p770
aV16bMYtqGyaz6dWXVAkb9gPzSVYkXPjHZiW
p771
aV1NPFDLJ6zpZJAZ5A4p1Up6BCWwDF85HGnJ
p772
aV1x5Ry4uBk7NrfxHKP66ANnJKLkRJa3bCm
p773
aV1PUU8idLGu7TDs18Ek67fDmXxUceTMZorj
p774
aV1ATE7CwjgJax5zecw3eQ3665X5tSPUrR8S
p775
aV1P7n1ffLy25rdxju3gjq1GMtgZBGBYnMcY
p776
aV1EKszoZYfMPfqWqGHN4rNUS2g1MpeYJJeG
p777
aV12d1RdQmmTaHL98fvsZeU4o87mn1PJUnPW
p778
aV1FTkUVs1xDgC19gw4BcquBpyvyEHVbHc95
p779
aV1BgDVqSCkpZUJqzjyAc5MgucY6mgDJp7bS
p780
aV1H8W48wxa8XEEwhRA8FAKw9F5uDQMjKwhU
p781
aV18xN4zDjx8oPKpGvkhfk85t1gSgoamJvD6
p782
aV164nqZASAZntL3xN7rSRjq8f991xkoNzxv
p783
aV1E3DL7rKgqrrEv8pAEMXSGcUXSQGsJmzdE
p784
aV1BzB31UcgMcUpf2Vt8XeMb2uMF2NLuW821
p785
aV1MK241izFVJY9vX5Gj988vX5JPBYGbi2Ma
p786
aV19Bc7pVNvdysSGTwc7VaM6DVSdUAEc28fV
p787
aV1L7Wvg6RrJYNETZXwoQaTDGQs34Wn5EJZG
p788
aV1LFCU4zXbJmNJ2iw5dmmMADTLgkANxRDmM
p789
aV1LhEjXXjDqgXKZJVPyFTA6shGrrPjfm9kN
p790
aV1ASjyvARTr4V6Xzbftpwk5GQNpAWsCjbxQ
p791
aV1KwtiwGDtWY23SZyMnxhBp4koYFhq1EdLd
p792
aV1PmETBTke9fMxXxJBB5U4Nwcbjr8Y3GTZB
p793
aV16WtLKmp5afhibmpwHvmJoKiTJubnwPnF7
p794
aV17grVFF1eiHZKPaSJ5YwPZBMMs2AzSZNuD
p795
aV1H2AwNzTSjyQkojY2DESSS6Jb2CLvKqNnV
p796
aV1PKrBEMcP6EWqbwru7bDLvcvMeu3btUsqk
p797
aV1HjxBEgUDdEGZkkJ2nMRUTkSztShLJ8sVG
p798
aV1MeWJn6vt5MVnFJQ195KgGrJrRwCcGMwoq
p799
aV1CrcbMz5Fx6KkPcvt745cFhmaqe2keQMHq
p800
aV1Kj5KU9yntiAwLZJUcSuCmvN4CgTBKr3Ce
p801
aV1CXTTwv8TpNgRVR77HSPniRuA8C8JPPvjM
p802
aV133dp4Ey1JRiQLxpGJKf3tyfdDePx94kx5
p803
aV1La8MhZvyppZfQ4qfGwZ89YRaUZwJ92dBa
p804
aV1MnmZHvTikb3fudSa76Q3ZQc7YtrKiMjdU
p805
aV1CCXswtjQ167LjCUmQYdFQo7H7PQY3efy2
p806
aV1MS2bspduBydUeM91ey6hptx7KF4A5KyvT
p807
aV1LYhW1YUyPEqQ1dXp7kJTiHjKCBtJapFHi
p808
aV1JxbS3Ad8mPMV5psUzJxh4MrMZDx1N1RRv
p809
aV1HmnCmXj3SDUqfMY5AAXa4KMxYcLwxoTJC
p810
aV15yTi3VCGhCA5SAwacGLNRv5RJxH64wEWA
p811
aV1Lj2AmBrxz58J1vYdW1Aziq3Z5U69dRfLQ
p812
aV1BkX133SSoqxPWmeB2y64KUMkCQNy3p6Cs
p813
aV18XQDhVADk5nY7hSt49p7iZSMudS9wLeU9
p814
aV1Ly85mvvQjzpm3ygwZnWvTFe4PKwgjVi3z
p815
aV1Mfiu8cQbQr5zEXvgtSNg3iULpTiSo6Vuq
p816
aV13m4LABhi81A52iiGp1puPUL8b3DHvvsCP
p817
aV1FrEbsuWwPSktbH2w6usVJB2cdgtQozsVb
p818
aV1GSCaRSud1Ea1oeoTdUwoSzwnCnaGJcdrn
p819
aV1HSjP63bmdUnejQ1otam9kHEhcmTuj1eg8
p820
aV1Z1tWyEChHp7Yw5upu818GLgVonpmNmzg
p821
aV16KBnA5rVUHpxYGVnycxMbtxkHchXT2MMs
p822
aV1LVfHs9htT4pCZJ7JitZCtrFZy1PWYmwjR
p823
aV1CiNu1pZ9DURgyyCrcnVHnVmVGhRHBGc61
p824
aV13AMFQkvKHVkjZpDgeZXThDY7Egt2S8tRD
p825
aV1xZLNXETFjfvTDFdN8GmKkAZnphH5cDAD
p826
aV1AW7TM52YfCWk797gGnQhoVdp7YrJ3e35H
p827
aV14ARmA8rhnaPc4p9d9KGuWy5Y58hmfCxrV
p828
aV18kBrSDQLWoMiwCcTCsH4BZ4EvdY1okUFY
p829
aV12ZBpjfDF3udDnztvxAvPMcxFCRwK2VaXj
p830
aV13UUjBBgBwtTQUsM1u6ZKCfsyo6sbDfDtw
p831
aV1NeC5NRTyd5198X4BH8cPPxNSzEhtUagcc
p832
aV1PEGCWiRRb4gHbxZ61aBQ64hvGbqqvYaPv
p833
aV18VWnTm9WoahxfCqMbLEXW4c51irgofqwv
p834
aV1E3r7n9cGaUkUt8s7P7HKmA2Yf8v3RW4i9
p835
aV1FWACXNm2D8RXV9obM1pui7SpmeNaBzqEb
p836
aV1La2eU6NeoX1VaDaaT61p4TaVo7xBWWRcz
p837
aV1HasxziJK9wj6Xd1sYDnvo7CdoE9yGiQj4
p838
aV1MfYbXMBfGjHKcB64iYZuTVn1fhqpJCj4G
p839
aV1KF3Sn3gyZMqMry2rorLhB53TzZbdfagFQ
p840
aV1BiXyVCBf9UQHxJGf2jTFmLhkWFeB3vWHR
p841
aV1Dyb53Hk5TULPqXoZpTDX3MnH1GmsziXwD
p842
aV1ASzxQsT49qYh94YLkA4JL3mewtt11os29
p843
aV17V2VtXEqFJ8LXufHDGVnMXVW4dPJTn2an
p844
aV16MQ94KN5sKi5mEEGv7CRsfVXCZh4vRgmb
p845
aV1HvC9tozqqZuK2hRpkXXh268u6b7ZZAEo4
p846
aV1LMoMmDM2Gr1pCghZkqMAAz7K9sc7jrb7t
p847
aV17EkQb8yRYxHjQLZUo33Waym7QYG85dX9o
p848
aV1PM6dxGh6XTbCM8AtwJDJvQViprXWSB1em
p849
aV1KBL1AHx32w3Au7xPib3sUUDqwvmJkpD6C
p850
aV142WTyuZ4Q6WXuWzQKhjsKQvdGNiKBNi8m
p851
aV19Fh4rjJLNT9d27DjkhRiQtr5sysEowM4M
p852
aV18gcJWWfHoGPc47sbYefDXVdFZvJL3NNri
p853
aV1GsVosKCK7XRwgf7M2V3JgPc1SmtkE5wHc
p854
aV1BWpDJHxKpB8eJimnRweeQTjkpgk7jc4gY
p855
aV1Q3aoBv9mCQuTvnMiij83eVDADScWebLqk
p856
aV15odGDWUASmzphNNbUSoAtTRhxxQG2b1Lj
p857
aV1Lsk8dNKkhjTanUCHWoBHmR4xdv21VuCSS
p858
aV1GPFUotoW1P2H6XGKW6dbqMRYMkrk1rzDR
p859
aV1DS8PqDXYHDZWxkhgAuAnLqGsuvfzaNJx9
p860
aV17c4iLpF65g7JuYP33VDCtXLFFEu6AuhhB
p861
aV1L2hM2niKWtN4XXwyeRNczExX4oANdPbSj
p862
aV18gpQYPL9ENwLf62KNZWJREm7CSL8wdzg7
p863
aV1JCxZLvYsnEUd5dS7zb6ibwL2QcdGBg2eN
p864
aV1P8C1Gdr7QUUJYy8h2BseThBrrCJJacJkM
p865
aV1PzBeDfvP1jTpGSgLqtM1Pa43rNvgESJLv
p866
aV1LNBWZyRBFbHzy4qAaAnof3ngnYA6GMxbj
p867
aV1MX4g66N8j8nkT6cPMXYiHMeLWwDbP7MsW
p868
aV1EP7GYp3cbjMv3VhF2sf6vJQGfptu9kocf
p869
aV1HB8V5mVik3nPjA8kXASAAi2gzwrwjpyxJ
p870
aV18mk39LE37PsyUdedZgMKFTwrUMMUhitD9
p871
aV18LSYfHG4pnNAUrCmSw7QRXykwj95sV7b6
p872
aV1BhuGFNkMZvLpsYGcwGfd9332hgVQGSFbr
p873
aV1Ggi5DPUGp3DBuf4Y9gQoh1f6cPCKKAR8N
p874
aV1yDYGSMeXkQZEgMtNLMnR9cotmECaWUkv
p875
aV1F7VgSH3DA7YcQ9LFbPDuBY4iU1Eb2hSDS
p876
aV1LxsKCkoLB8Y2UZyUcrZovTq6XjwERphRm
p877
aV1KTxZhY7CZZcUu2BbuKr1CHyagDYFob7BH
p878
aV1D34M91nSFUpxrM9gQCRsNS97iibNXVZkn
p879
aV1KGuwYbMAq836sUJK9CXu5gg7L5rQfd14c
p880
aV1BcggWopCQwN8nF952KugG5PYUF3L4udQU
p881
aV1MzLzm8DLP1gUEeg2v75wqr5J6WXJBMg4y
p882
aV17SmMe3uknCaWwMXWug8aHf6LKGfb9s77V
p883
aV1BCiYCAcphez7aadJJbwBuotV2SV7gsGdy
p884
aV1kRaJbyejNegBbHrptpEGybwGquAFMtTJ
p885
aV1LWmM8fY4gyjfhPdzpGbEEDkFczgKTyTfC
p886
aV13hpCEXVDJM58RxmpyaaAvn18r1rgppb8U
p887
aV1AMD49EAtaDjWxNW4BaspcAFnMi6NKNWAj
p888
aV19W9TraZgXKvC2tt1yVLnjemyTy4KKiXCE
p889
aV1P9imgCqvRxvwqmFkZRsP96Gsv6b8Yk5pF
p890
aV1BLW3UWsqstCNZnKexrebsA3fzW1pQMBWP
p891
aV1MqodW6FjTdho5rpZtfMT4Kv2Rp9jjUm4j
p892
aV1HuKK3z9Ad84G6ywSDvXQJrQ6HakF7Bsea
p893
aV13SRzXkxE5VX1hHUKSpoYEkuFAWzbxBydf
p894
aV1MwwPXrvzwBV1beV4QdxcdJDMpV8JhicYq
p895
aV1AZKKNfC5Pmu6BhQs9BKbankkCS71SryhN
p896
aV1NCszGg5ecum74QwnjhH3ezer2VnPh8PAe
p897
aV19zqeBQJN6Hr6kLzizwAtPuwY7qkZnHjMq
p898
aV17tjqJ3npHtL18BjjUKESR4qcLXsWXQ5qt
p899
aV14GgbgwNkcSGXqJj5ogSzfeHu1tEU5yJQ8
p900
aV1LxoPAVDk7ckQcjx1wK9LuGFhmQWK3kHLg
p901
aV1HyQAWooSjgdTwuqDNStF2BERLtANfEfvU
p902
aV1WvFrnEP9Dh6pY4T1k3PJwB6VuadWzH2k
p903
aV14rxXP46kVaWf46WtEsP9j2pzyZq65KRb6
p904
aV13movT6pQezaP5kACxQdJSesFarTgZpatH
p905
aV1CGp78xPBB9kLt1zucPo51YF4XDUVWtMsP
p906
aV1FjRbTumgPbDLD5QnPMK2PPFEV2g2RTawP
p907
aV1GkkV181KzaAQENrxqqZ2xuoJWaGEHJ7fT
p908
aV1Gga5nZo8s5GrbsQXEXAMz8EtDxaVu134a
p909
aV1Kvq6NmZkZ7yXTbngJUWtS8q7T3ZZhMbm8
p910
aV15jPFKxtFdMDTPJWuZnpu1RHMdZmjzFui7
p911
aV18qM8n94zhBZdDbERPpHqfY6D1exn91g6h
p912
aV1Ah4JS6f4tKx2tN1hgonXJZ5t8SSPhAwLt
p913
aV1PpBQiTqNugffSTGPoDZQ7Qp3zaBzfH8ma
p914
aV12sxTs2T4guDvneUTqMxQMmb2511tPuepD
p915
aV174mCdjYLj41MJwYYQPKjHR8cG2NqmhdcF
p916
aV1GEDa1NwoezP3nQoczyKB3xzz42iKZB1ye
p917
aV171ZTJ1pbjWcNJEJnznhf2P1TEuquZNRb2
p918
aV1HGhmNioy2k7z2Mkww4UatXzMGWNbowWAf
p919
aV1GoTZBBxbRt2rnWJqjp969M2NuRXp7V2uT
p920
aV13N3iBTAxZyiYbvJr7Zoda7VS5NmKYGg5M
p921
aV1LEQ5EUnBkCmKorob7FG2EwwnmpM9M3np
p922
aV1E7kA54Vz9eXPpfQ4z9n3pa7qikkT8UWKK
p923
aV1JwRMQJHzVNaDnxtKd4dtEshcyVFi1p6io
p924
aV15w42C8iAt9UPyYbcRVs1aePoLbnj4rH7z
p925
aV1HdfmYg7hiQbnqwdQHoauVoWzToGsLUb5b
p926
aV12ba48oaG3E1yj9TG4qEGiMXZvEeXjW6o1
p927
aV18YYmTDVrJQ1C5C8b1dRGKQaUkuhyJhx6z
p928
aV1HCWNfNmJ2S2JXd6GxhHsCzcuvVaP1Jd74
p929
aV1CpqDm6yGxhzxiVmYPrrUdPYRRyLMaZkMg
p930
aV1AnP5Bug5NjjvJnGuKSJHgTmEze4a8xSij
p931
aV1JMvS4WvYpAe89iGAZ83VguoQVMW6EbvmM
p932
aV1DEM3SM3Agavhh7vexnBs6WE2tP6zepdP5
p933
aV1Jbp6LbShvyM2yEXZd2ZJcQ37vBmvXENk
p934
aV1HpCYF5Z73tsWUYxPWiJsG23G1secupM1F
p935
aV1KzvVyNkx4VB9cDjSBAGiYietZ7JEJEsVp
p936
aV12DmdQTDwpHaotrA8AYF3czNCXR3Gjbxie
p937
aV18Z4ySRXqgc3KPCGKRgYxuejFVwnvJiK2E
p938
aV1mmPqP9wMYwsfz9KYKxY6o7boGuU1df7v
p939
aV1Ka5nBwmLuNvjxy9Y7LFiPhBjmNaQE9DUs
p940
aV1JoondQnkHA6eF4ASCsRJcR9eyTnGH3cCA
p941
aV12apDXzmmfahGUnrW1XozsUbFoW8y3Zs9E
p942
aV1KekXRUjmPasN8vxYY8xX2Crhu1kc2jZUk
p943
aV1EJcexMhisLWK6uaDf7J1UVAG3MvQ7tiNE
p944
aV149pTyZVFTYx2Hg3zLEUqgKUMk2SKBu5qC
p945
aV1HSxuNuPZorG2aY4S3jD9kg8agQHuxJS5H
p946
aV1GzeEWJCqF4CpQfQLTKJuc2H4vCRaXJN67
p947
aV19s4Hs5X4YRghqKkvZEW4Q6mx1RT51Rteb
p948
aV1FY8eptRnqUAc9dMW55JbXneq7t9XSmSdB
p949
aV1EUaGFKyXbydc75K2oMMyGBitaPUW7RKFB
p950
aV1AzsALuRfDFJznHE63rQWVFApxMvhVjhm6
p951
aV192GFS21E92WuAGDhxRDmqU6qauRUs7PXF
p952
aV14YVJasNnNVYnnNpiGZBZxHUyudToK4Myi
p953
aV1SL5dHhGkcLteLpCQvQMRctfCuLkeT8Vy
p954
aV12z93vsAv5vRN2C3xqm5c89dRq7sFumXMr
p955
aV18AfeTRe1Gtz6LYnnvr3t2SLakYwroz3Xx
p956
aV18D3MkpFuxXSg1RG7kS75gwvaMszDAc5Ex
p957
aV17gdwjB6EzfMmt7g31pnXCTVX6cSU3QrhZ
p958
aV1GELAqrSHhw2ZU7VypJnBbee72FBCN4yGG
p959
aV15pX47AtV23f4eRHL91w5ZW8WEawf6CR3A
p960
aV13HUCQNUrv2XVUPtjQP31ZGHxmrR5bdwYJ
p961
aV1Cw1yeSFqHvchThFVTnaq1RjqPXjrzPzfH
p962
aV1GuyNuUdzzy4aAsfGJzEJPb2VXWoC9aFjZ
p963
aV15PW3hwGwhThoPKnDUJoHtWexQAoKnQYUx
p964
aV18kBKHacgBb9yMVzAx8zu75MaSHPuswkQN
p965
aV1G9bTts4yrdKcgfCGRq11c9V1CpYCCDY7C
p966
aV183WVFTxY6gZ6reSg84buaUgGWyAek1hMK
p967
aV17Y1MNdSewqKEcRKbcGHL4pJAo4Szq5mbE
p968
aV14BCxrCcudK4pqTMQGgj9Rh9yuXPtdRKhb
p969
aV15nBnyjvkGonnZXo76E4YoKRhVrPiyyqGF
p970
aV1CXbppEMv5n4WP6c2iPbebBRdGjqp8kRM6
p971
aV1Be6LumrK4LQMJ3KU2L7BQiRPniycBWJdd
p972
aV1M9Gpofjyr6DVBhowjAq9BpTYoZuagVgUL
p973
aV1CthbK41gUemmKWttuDZmdu4AKCd4mbVmL
p974
aV1Ag9DiDGuvzjktRfh4wccfeJyyG4NDKmz6
p975
aV1DavW4AkMPjVDDKoPVTXpqJdG96C7p8ACo
p976
aV1E8kcASW7TYMVU3GfpVoWyeZ3Ys45ZqAAF
p977
aV17M6ANKZ6UdLqTdtL4NmG9K3egWD3cabXk
p978
aV1B2VaDtxnqhodYdvSVx3bVEbp3vMnKeMEN
p979
aV1JBwaCFzgpMHqW2YE2mtDJeTfXPa62r744
p980
aV14Aqe3BEaGDzBrE49qH9jvbyPHrBrZ2NRF
p981
aV18FUdNJ1tYDNvjVVJxksxiryLjDBu7G6Pe
p982
aV15UAYfkkmFyUUvdbvW81dg7VQtLQ5FYVsy
p983
aV1CU3hyEBCYHWEyN7CtrSCTtXSXuqN44j8n
p984
aV13MA6oGsG1TUYJS11u3ZeGKDaad2BgYJuQ
p985
aV1DQ3JcpTamwjM18KaWQUbGfdzeqrtBAgCz
p986
aV144KQG3giLmY2gAzHFaNf34uQbWzxxWQFE
p987
aV1M3cE6DjVqjGYjNgPaLDuGXRMo3D12oddg
p988
aV1FZRmqf7ViWZCqDvfcXTTwU9s111ckR6sF
p989
aV1LbqQnhLQyS5u9rDipX6NgHyMPGTJnLXNv
p990
aV17cpbadEw8hSVY43U4PeJjemnaX2baDFWM
p991
aV16Xpj8UyHCLq8Y81wpDw26FNhbEMULeexD
p992
aV1MqEN6Ap5Yhpg1Qv3Bvs17apbc9E93nt1i
p993
aV1Nhfdu7sLpira2DKVSUrC6yuo6oLyDutNZ
p994
aV1AukwCdS2HVBffzTNhXx3DZqmoZVRJ9UCM
p995
aV1Ab6dosGk2da4V6z95esoDgaRS4hSwFhnk
p996
aV183fHgwDyhQrPLEqZeLk7sAUXCYBvH19VZ
p997
aV12jdzz5PUwjgoRkuMbqVMAkMai3ZL2NxKC
p998
aV1DjQx3YSWtePMQFhqBEj7Zevq87VE58BAv
p999
aV1ND9c86ZPC2SBraXME25yHysMfRB4GJ6JW
p1000
aV1ByMdB7gpQmRQSboApAKdPsy3hAsXYA2bw
p1001
aV1PvyH67Cs75KnmGYG5QhHhLQyyyE5DU6nq
p1002
aV1CrFVvFnTbaQHm919kthJBjajDPvC3bDTz
p1003
aV1FBwRwM3jSZBFLodBBsL61ZGucsNqySLrt
p1004
aV1PZwGX9GNaowYB3NS2Q4mC3c2VJUfPhRgA
p1005
aV1N6sYJ8vcb1edJFAu3PQUsbfvDmD3VMxFq
p1006
aV1N1eF9XxAJ8vcV7akKyy4DCeKKcVPGs48f
p1007
aV12Bm3C2vhuHVQEPDGrWCEhVABszhbzcHAK
p1008
aV1KKvgEeuwnEb9wSfJ7NTe1NVTidPkcb1h7
p1009
aV1HwtUJncrn5s4U7MmF7846TMFg434PpPie
p1010
aV17G3b5asHfHaKxQg3WR659Gwkk6Pk6563E
p1011
aV1MtfL6AEsZX4hSBDMqK9GBJs7YR7m6b2Fo
p1012
aV1GFYnHAVouYazF4s44oija8eHM7VrHsGWT
p1013
aV19NbTScj9iUgLePcm1eZL8mxL2KKrsjj1L
p1014
aV1MvV4JskbzdiUmFahyMtbcv3Xg9QfS1tsU
p1015
aV1CEs9amZLJGuq3TWUcLa44DwgGrmSHYCVt
p1016
aV14Ztvc7RjeyyMaNEjp7n1pb77uF3Vup88W
p1017
aV16ANymhzNq6wwavhsn3vPRWyn2z4jdquqz
p1018
aV1Cy4xWLuJCXhkBC79nJquJ3b3AYkMQB7s1
p1019
aV1Eaadys3Zp4DWzHhtHp4srB42ZhNMts7DB
p1020
aV1JHrnnDSYZvpXsKgjJBkRHfkao2s3HQdGn
p1021
aV1FNfBgUTZ91uorzjKTmNYp1akuE8N7iDtN
p1022
aV1A4JSjaf84KisyJMgytHwKNGtcMWY9cjaB
p1023
aV1JQ1VAdYJ4hMzRCdh9Ne5jfXeg6uVyZjky
p1024
aV1NnoFAwhNdcdwCXf5hzuup25LwmmpEEbZh
p1025
aV1BoBNBGaTEmXHiCMcn8jVqamdgMsUu29ni
p1026
aV1PTb9Scorbf43smJRrLeAxzGX6CuM9jV3f
p1027
aV15DNQw68bs7ecySu4qEu42JVJkA8g66GiT
p1028
aV1FcVyZ6Z4EhyjXvWR4ocFnWWnkGQuuYZGC
p1029
aV1yecbMcHjxrRK5gr1daFvAyrxapQGKnai
p1030
aV1h2FcxpLbs4wKSJM2bVtsHHL26ugAKorK
p1031
aV1PbffsXhjU4cS1AUk3Pd49KBf1E6nAUfry
p1032
aV1A8KrYq3bB8LVinw7gA3CTnD9QbLxGKJ1p
p1033
aV17yVxrLBtnEnPZwxmiYbZSLvF7wHHWwmPT
p1034
aV113A9vdgusLPU2WnZGz6KbepRLbmZL9ccC
p1035
aV16k8rzKxv1vuLhqMcimAMJ95MxkiqKmUjy
p1036
aV141xiarmLJ4WQKp2CEZkbFrVwrXyaqWRYB
p1037
aV1HmBcSiMGvsR5U2NGsRJpLGg4tZ1hGSYXi
p1038
aV1S1oBL8DTmjTsBXtxbwhHdPyq1EpPzCEt
p1039
aV16czKTyu15VTStRtCSbqiDZ3JNR1CgjAca
p1040
aV1DQwiinY9XvDAZ5Nix1X2pn7pHQLaBE8xV
p1041
aV157xNiqxayhJoFkco6Qo9KD3tQZUHbgQHp
p1042
aV13CMMPVfwbyXuef5xExrTHo12VRdVyE9WX
p1043
aV17sJpzDmm8Pf3dR29CnxCAAdDmu4Jw2JW3
p1044
aV1KCaZiLWsVuuSDtXpxgBanYbwnjxafJJjc
p1045
aV14TVuDhtf9cgfXncvQDJPNWbgm3GvueJTs
p1046
aV1PLFZQYypxzKQpDDwpVV9G12cpraFyKmPp
p1047
aV17dXf9USi8CAThVKPmoEqS3Yymj9xN3bof
p1048
aV1LAbycXKVrw1uFYBWrHQ26GXWzwkvMuv8T
p1049
aV1BvUHo8NNZEZRo9DQ7RfgQszzLLFhhecdL
p1050
aV19SPouv3RE7rigoLwa3kSmS3XTFmjJrNjc
p1051
aV18WnVYRifCEZ5R8bkADJcY6p5kJVFAV5a5
p1052
aV1FTUNBmsP5jTXPAp3fr1cPaMCuQixz5m4M
p1053
aV114JRJkPpXEKGHDYR8RQdRCJYeHobH6271
p1054
aV13buhVroydrbgGwJo2ZDmGnaiqr2SZhfKM
p1055
aV1PmsCP3m6YEd5LxRgp38zhCz3vhXoircS5
p1056
aV12CnfPxi1zLJ81uzG1HuJFCzhSp5d2ieMz
p1057
aV1A3xSde32mH5ab2FAnn1FVnZPUL9ywXY6r
p1058
aV1JASJbFrB8p2kqJkMzcFedmtR6DRZeNjb
p1059
aV1BHnDbJtg6nrGSfa8oPCVpH35qwjuiWLZA
p1060
aV1DXQUBkBJ4452vtM6DCy9aUB8z4GmPFgoG
p1061
aV1ErZWGhuUiXGA6eUyuEcXJ5ia7SdwwNUUr
p1062
aV1Hs23XzyMZrhPdYkvSuRK6XMQY274z3man
p1063
aV1D4DcDfcdUh3j4WGVGWypkotSS7wbxpiPh
p1064
aV18JQo17N3pGfyEaMTFDp1jnUKK2r6YdfYD
p1065
aV1EdoLPZcrKUB1t1EVLYh7meNzsJnF9tySz
p1066
aV1DKEAJ7uKqzR5oNtaLpDkvDwbDMwXmUeSX
p1067
aV1NCoWLs9R8eZPPGGDmJvHmU1Ay8owNE4sB
p1068
aV151nKhhQD5dywJB6G1HFfPtqe2ZaUuXCVB
p1069
aV1FhLmE3sLEmVBrJP9yrvofNq8WBYrsRM1Y
p1070
aV17yTsFaFGoGnbpsuEextcNUA5VP7g3Ch3F
p1071
aV1a9xRUQY2Mzc7AtFNRTNrSA6Jr1YYPzU7
p1072
aV128KMJBKJfEF8PNTrUpLo3yp9LTpW6yyhq
p1073
aV1FVJk8Sh9YzHuna9yxj6Csn9Lp4zzRmuHM
p1074
aV1At1VY2NqZz2wEupWq6ZCRW4qWm2pmkb1a
p1075
aV14qv7A7GHZiWi1ckh1JcVuXMZYvuCsgdPu
p1076
aV1Kq33QiCndU5FE34x4VNE5T72ZHoyFddQj
p1077
aV1P7FW4PYTHMUnU61UB3ipbMmr4gQmHVUPE
p1078
aV18or8vVP9RGBk1eWAxFNhnSjWAsBYYtUB2
p1079
aV166jsmx7e7EfreutNuT4M5WxjBnsudVXcQ
p1080
aV1FLp7Pb8YtstM7AZ6BiVxHo17WgK66DLvZ
p1081
aV1P2yFnvJL3ybnFH9m9uUBm2h9TwefF5zJe
p1082
aV12kjrBQP6yzTJUnwwfp3SML3aNQ7XdYm9b
p1083
aV1Mz7f7xc8wZjasaq67iuSivRnLodsDePXD
p1084
aV1DMzCW3kXR2ojWUxfuNthL3WeXw1fARUkk
p1085
aV1DYELNviXFxiEoV3NiMPhswKn4oHUg35Gc
p1086
aV1FdDXJnDUBaXu334DggPh7LDg6VgpvKQXi
p1087
aV1Pc9EFBtCWj9E3EGJj1jUHz2aVWXVxejzV
p1088
aV1EwqTjmWX5T5EAPn7qTEy4tW156uoKWXB6
p1089
aV19MEUDw5yzDnn4VgQwdcC5i88yroCXXtrF
p1090
aV1H8AgFfUQZxyEYqsDug38Ftg4rGypVxjf5
p1091
aV1Dzre4ENPai2Se7DkS9hAwv2non2QcYZW9
p1092
aV1NCouCcqZeiWxQGs2p2qusjKPwNABzsMag
p1093
aV169Cny868jGf4qoHyCSg9rwqcqk7TC8JTk
p1094
aV1Dp5AxVzLDkiMzXQnny8tWEgK68kbq9T6L
p1095
aV1HkN8DhrgQvLjJJizp9MeusSdUpmxhjjk
p1096
aV1CCK5iY925gnMpwz3DjczvFYkkhJdtwXJn
p1097
aV1Gusub87hJAWAbqX4CUvUV1G2AB2vh3W49
p1098
aV17QZhVvMH5L4niJ5XUPMrrFC354zL11TQb
p1099
aV1NdWAXKZjYKCggdUhXP97UaSSSdZtvVZWn
p1100
aV1GvU7mQk1snzA8JoCzCqPMDDk3wWy996hS
p1101
aV1BUNNcjVwQvhPh3JRDLX11Ecvmedb1mj45
p1102
aV1LLrq5Y21zFRba39RXeFiYDA7ejAF8McB6
p1103
aV1JorCzNFPVzdggxGoU5ZZgkEJY2iEQny5M
p1104
aV1MzuMETjjgryguwuRRnJF4g225yf8jjQ5z
p1105
aV1GA7LE6Avg3h95AyRFZ2wuuhuegU6Bm4io
p1106
aV1F9x74x1GnbsJUcvgJzLXpisTzC4eeG9Ee
p1107
aV17xM2bpREo2ro1piQ6DqbL8NCDQNRcm3xD
p1108
aV14b2b3Fz93dT6aFcPv2ewaoE3oNocWf39u
p1109
aV1Em2tjQL5s6Pcbwx98c3AtFqqMbLZYnze7
p1110
aV1MTF9bwJECcef5c6FB1gV7YGvzjgujwCYX
p1111
aV1Pu8SwvdSZdqAka7uKauWM9esKZ4u5QYFV
p1112
aV18MkznN4YZqy6WhFvnJ5p3XwHFkbKazRsU
p1113
aV18ZXZZhB9kYF9TySfvnwtjDffzB8vXSgfy
p1114
aV1Gxm6ZEHtyv2E6VLNx2viktziFsP51w7c9
p1115
aV1MnM1sytmxaa4dfi7V4mwaT3361P5GZkE
p1116
aV16y74HGwyYqTKwXfnmB3Ly8hSZZ4ivyJEx
p1117
aV1QHMFZFe7FSumscwdtdeACDPQJPbtfJbAB
p1118
aV17gjRDT1r735rX6JiQsUyuugH8pzGswGqt
p1119
aV1KouryBPj6Hw151a3TTV256bzKVzuqBrA4
p1120
aV1GSJUqsf8Z8SmP2jLVDNzT7sXq3k5LkSqX
p1121
aV1GKrb5qgAsL5BHLzNFYNvN8UcJ8dH38qxW
p1122
aV1DLwaKJVvKeWjzvE6yAuUVvUovrW5Ta2Co
p1123
aV1MWyfB3DvVQCcgUwKH9WPbnMzd6vuYxYEk
p1124
aV1QFb59EGKrW188Nv3mnu98mJkWNuLM2BKp
p1125
aV1AuU796pWrWKPzCDwfqxzbYXgwpZaEGCPJ
p1126
aV17ZhRbNZNrbDoLMTKgMhoys95T9SKosvhN
p1127
aV1QCjnpj9ekv51agjw8uXaFEwjfgeKTSFNd
p1128
aV18s4LY3bTHkZU6DvX83zkwg7Y7uubLFppc
p1129
aV1AvcPoo6cFWPg5qVREEbt6uzy7NQup8J5C
p1130
aV19uuTKrwVR7gq697b7vXPXFqiuBm4Hk5Bd
p1131
aV1JiVXw1v6PQDaA9AB7UchuYT3rJc8k1E6E
p1132
aV1LB4saVWHV5EKnbRwve6ARdf4ixTDKopXz
p1133
aV1B96u69WWn9tNz3fiwtDZX4DNL4MZg7mMj
p1134
aV1H7nJnX5FkWf53a5Z6bXS6QQxzMqD3ybuj
p1135
aV1EMRFWGrFtWTiTnKQoeYBdh7Q5iis5ALPu
p1136
aV1GdrkknaDhHwXNZkQF9LLtVygnUZqWM6P5
p1137
aV1LywX3HMf9zBYd3td8Gbg11b7npfB6ZGZT
p1138
aV12WCtqwDhPEVEHXD4z4WKZGQuEMXmk88Mx
p1139
aV1K6ezLH366SbePBzsTtq9HQo8Hhb1D8tSE
p1140
aV1C4vSEhrhCFXPcfVgc8JzEaqmvb1LzYALZ
p1141
aV1GrExJhJcUZMHLP9PdMD3UgPcu8uQLeWDb
p1142
aV1Phjpx4hBQmbq8xJQENn8QMcbAyLzY2zyk
p1143
aV1LDJhTdFibZorjcx1LpCDsUHeHynW2VA7D
p1144
aV1B7ZfycsHaJj8NXiGgkZKyM1vhJ6sHyHGP
p1145
aV126Chxww6ftySUE5KdXtpteWpquYsR2txS
p1146
aV17aGGR7TFU5dYxDHCTgpijpyJiGpEC7D7b
p1147
aV17xVLJA1pm2ti1wk3ehK81HoXdyi8FXwWg
p1148
aV1HNJcfiMt2LaPHRBM2HMr1Ymqnt5ZsWqeT
p1149
aV1Afops6J3RpJCFRcfHfJmUg9pZ4UngUmtv
p1150
aV16zJPW5ZnrRRJVFTyXhbLHLKPPjZSBoPUj
p1151
aV18NkH37chvFDb3oxi629weXPoq1nDpj23z
p1152
aV1C8x7HUiHYMogH2JNb5jW4QsnV9UZDFNMj
p1153
aV1BxAnLJFs88KKQjCzJjgbNFGuxzJ1a8XMg
p1154
aV1JCjrdGBTUce6EkMGNk46DGuNBMfMLs1No
p1155
aV1DTzDQp16jgBtZmFWAruUgLWMZdoem4obm
p1156
aV17dcbTnvWsYdhRfkhYjVypX3JzrjzrPQnt
p1157
aV1D7AdNoTYiBn3JDmVvNugubcb99EyhEjAg
p1158
aV1BQ7WxP2LjV5ijoS51XE67nfdsk5Ucd5yZ
p1159
aV1DascZ9pqM7U1uAKsEkkaUC3a35bmP3ize
p1160
aV1DXTMyP6SZpSrcPA73u22kfWgmv7mXjrYv
p1161
aV1EyxmLgHQWgNt564NXD48KoWAtfRTfAZ1Q
p1162
aV181KXQL1xJgHK3yZREPVXFUNV9vYW4Z97T
p1163
aV192gxrKTCg6skTzUGA6iXVShXbLZ4ii15m
p1164
aV1BckWC7SubwrCKvjJSrHu2Bf6VXeHuL39
p1165
aV1HFBfnRLcEafnokjdUZR9JXftV8T5K2wXd
p1166
aV19FZnW1t2EeEd1cpFd5G17p1XHwAShkiwB
p1167
aV1Je44gfUKfr2eVJBr6vhUEFum5HAxB5PT
p1168
aV19w5WZXHdBjQxHXgEWQi7UD1CHENVzjPgG
p1169
aV1PZp1TGgZt8saTwVkHJeEyYaPBtKP8zntT
p1170
aV1edqh7wBs5aUSSgwzhDZq1RmJVg7VrHvz
p1171
aV1NBsNSABRdTvBD7mQ4kwjfYfD14jZ8nEkL
p1172
aV17Yab3YJB9FbmR4hFYA5E7NDPA8Y3U1khy
p1173
aV1PhUiBZfGwfGhFLWCCH6a8Z7WZ6UL3qJ11
p1174
aV17YeEVoGxniVvqZwkg2WRpUoTPYsUftU6F
p1175
aV1QScv8DEAFhY7FdpDt4pwuS3scQCtCVua
p1176
aV1NbMsrhTp7tQ2rqpfU33VvpoRwh2JPGAgm
p1177
aV1Hp2E16w1Wju9dyPwxJ6Fv1C5uMdZfRpm8
p1178
aV1GpQdAQhFjwdowjwb22KsiVN1vdpcArLa
p1179
aV1CL1WaERvdfUGkvvdg74N8gKmdiPrzP5Xj
p1180
aV1GrQKNYWN2jS5j1C9JUP9DkeekxF2mEhje
p1181
aV16iUR7DwocHazVKTSD7yMix2svXWuGwzZt
p1182
aV1EHhYRu1SYufqqsut53kSeuHrGpvS7wyRp
p1183
aV12YBz7ShhxbxuaKwwxMKwWCAYEWMw1k5Dv
p1184
aV1PfUQH68hg97YzHPrE2b42bHB4CDQHhLkK
p1185
aV12yNDWLp3acxddGDSJ4bvAiDCAUfn349pR
p1186
aV1PEMAc6cLXTkik31keF28nHyzJzebqhBTZ
p1187
aV17tvAxE7SYquK8ennKCzXA2de6efPKP333
p1188
aV1Hi5NxV8SvEocQwYMpGFShwCsR6Ufcso14
p1189
aV1EHKuDpcT8xzyYLeNaWb4wL91tGhjhuB94
p1190
aV1DU4wpFKfuj478xjeZfFPY12oSr3hsJFp
p1191
aV1AXBevLjjp1qxyvVdByqkQcwXPFyUaHVJF
p1192
aV114nRfU6byi83sE55YhhdMuwZMFh9RZCgd
p1193
aV1FiJ7gh35YvuG7xEj2uEwyUmXo1CKpvMKC
p1194
aV1E8kq7zBoh8U7vD2xzcaszmiRztVGtCWLh
p1195
aV1FgpRft5unBsxxycN9oJYq2DbkDWHhy7u4
p1196
aV14yTXMZfLuZkJREmUj83ZkQXFvFZ6CiZJj
p1197
aV17oTVyboCWb3Hr7ADsBMeqGuLdmq7b6Phj
p1198
aV18V8ayCdkE8fMHhmwuhwpKmHVGJWJ8zAXd
p1199
aV1FAMwqK5CcymwqE85USikonA6jXVecaMLc
p1200
aV16nPmjmSSFDp9RHSvZntCoxwZNSAwwGxKS
p1201
aV16VUFssumMZYZ8u44i6g2xJyW5qeJsEUjU
p1202
aV1Jz9M4kCQNFAkbmhrHkfkxNEMAFTuj891E
p1203
aV17drzfEw2veckyZu7gCfJairWH7d2ns6se
p1204
aV14aK8upZrJs1dE218GMeuiUZrzQuSiXaZb
p1205
aV1KvMMQfSddAykZRRTQBktUkDQbFHsd1o7a
p1206
aV1KNCuACrtRtmQqY7kfZNq2m2o1JzzcrLjL
p1207
aV1GsUH8hyAzq6wR8dNPa79hSxZTDV7iW9BV
p1208
aV1ZgyRDn87STDiDaQp4fGjnm6KUEWfjhRC
p1209
aV1KxWPkoP6CMdGMjKkktjaFAyocZZEiqgWh
p1210
aV141R3FxjVzB6nY2hGBr3UipYf785osoShR
p1211
aV1KgXmujNHNCJWynTwA5asmMVVL7krWN8Vg
p1212
aV14tQquyzhjRAgjMu6xShw6KdS9FbH4NYYP
p1213
aV186WXuiVSC5zNhfityWoAJ7gFGKUFccW2t
p1214
aV12CXaMwRk9J5i9ejiCLcFdvqkoauEaChjR
p1215
aV1NeiXVnzNW2C7MpfsK2hdM8fWHdzzQrZ43
p1216
aV1MmnXSHqx5XYzMtNroLHxJBDgU84ypYqzA
p1217
aV1Jg8HCNu9NJyyk5VKexP8wWcq41JHBYYhS
p1218
aV1EMG7hg182jXBRdh9r8T3QhKYtotwDoJ5L
p1219
aV12F3EdTgHRmxYZePFCYCZKijZj3HErxRLa
p1220
aV1SaYRJeFiUCp3SbHXjTgffNMYGGRYtGZp
p1221
aV1F4kob1gLduDZWoCWmKHTw29dAbTFX5Pns
p1222
aV13sgqyp7BZjBKMDgL4DeyHJRBxb3yhbv3J
p1223
aV1CdbAhG9FoXTqWG6q1DE5RNxEGBn61vbKw
p1224
aV19wKeQEhJkWw6NX1BxSquRyaWBPFKeQrAB
p1225
aV1LZFoPqdy32HXEYW6omaw5jH63G4LU7pBV
p1226
aV1EDNTaTXn4eNRSpcXEkwprTyYDhCr2WzdM
p1227
aV1N6JozQYwRUt7bez26PqsPiFeroiADuETA
p1228
aV1JHBE6MFhdUn3c6SNrzMApqrmaz3hbfoPU
p1229
aV1Fxc5vBRX8bh455CGQVu4vhdundVBYzPZb
p1230
aV17roX9z16db1h1epkzykStJGX3B8RD3XGj
p1231
aV1JjUGd9wyXjgpR2te2uB5SkvB4JswDcLEa
p1232
aV1LjkFjYoZvT3WPTEgxBKyFvHyDmqfRuYPH
p1233
aV14SzVgjYkkGiC3gJqhB9dn5YyMfwEq8gik
p1234
aV1JYCLeG8jNoqY7wzU45n5NRbNfHYPcu8Ms
p1235
aV1HeW97spti8yEThNr9AXnkN1TscFZAbYvq
p1236
aV1KWdK6u9VZ86HPNBPfCPVAGkyWmNzLiK3V
p1237
aV1MZsXPK6mrmzyyT7r1v2Ju1gPyJXghsuxr
p1238
aV1P6dzFjTvts6e4CtRrkM6KedbtQPFq4hKD
p1239
aV1PfWvmDWV2rfxfdUDeTekSDfZEXpnCjvhV
p1240
aV1KCf8ZkCHRKtneHyWYKuhH4UeLc2Dyv7yg
p1241
aV1CCmdQYtmF1GNQL8Tg1KRUXU1zBq4GTB8z
p1242
aV1DDnB3b5kh5Ea7Grt6f5MmsXn49sJWHC3
p1243
aV1JtP8UieoY9zqd1Huh5VDF6RHKfGcFc7rX
p1244
aV127QWMhxrHPaY14R1hv8YqNxDWok7MrEXj
p1245
aV1FZRHXzSRnvmfVV4f2N4ERc4MdiMP8QeMW
p1246
aV1X1zeq7sPNmbN4g1oUb8SmVnJGP8sNe9C
p1247
aV1k13qcnrJDZ3tWLzYdw2GCHqTWSCSBuAv
p1248
aV1Fcc6wLb6VbSaEyayad3N2cDQCaiiEDZbG
p1249
aV159yzaEttt46CUTB64AiAuLaRXMA3xN8hK
p1250
aV1BdQEq8tbv9HDNtFZV9hVNW6j61YSiTL6q
p1251
aV1Pgsy3fuYoy35VJ4yiz1eXgnhnCgvktySQ
p1252
aV1QDQA7BPgtTU7FLzdht5yRec6JV6LTKzAL
p1253
aV1EQsFTvmqCihWk9odCjcsN1gcgA6n3RF6a
p1254
aV17kietqeTfCaT2xxzHYVn38QJWtqnNyf3x
p1255
aV1G37YE7uwzzj5RGvdcNAT6eW2CA1cbSbDf
p1256
aV1GocDXyiuEE5TsvNUDFT5hXP9jYvH9bTvV
p1257
aV1Mauz6fzFtnrUBamd1friyKwJn7tsYpZ9V
p1258
aV1DjLkKfsP83Uy3eKV1PSwJwV2g8H3TEvDU
p1259
aV1Gh92qSjWKJJFcW6fCw3L2Nue7TPbxJZq9
p1260
aV1675CQWDcXMvQr5SE8JdcUsTcxVtFLTUJ9
p1261
aV16ucUNCjaSW28kZG78xkmjC8mfLGaaJ1gA
p1262
aV1KVwGj87UoHcb32GuPCmr8r5fWcs12hiB7
p1263
aV13R7751XXWxcjDheDtCdHFDVJjewpM9H6e
p1264
aV13Ay8Y9AgGTv8EmY53nBZZoRyfJZgn9pHU
p1265
aV12eqTjQpV9tDnakjVYWgpdNQmM2Pdyq4ja
p1266
aV14AgUp1Tirw5t8vtusWSUdJSRxLxSwKjt1
p1267
aV1GNaTWamLxQ5HAWoeEzWvKjBk6jqYfJfnn
p1268
aV12RpRPvFokwB2cd5yA2b8UxVwxEKPpLniU
p1269
aV1JJviM38FqRUgESKAybjWxDj5HxyiW8jyn
p1270
aV16y5j7MKuZ9uCLXBxFskX1wZGokaniYCiR
p1271
aV1NgrqqvBcr6qHwirmHGLPGye23zR9ADSWo
p1272
aV1Pu83BN1DMSrJ6zPYebYAqEVSszSimk979
p1273
aV1G8rnXAuJeGn5kCJcwW6X4tZ4nnLpajUQD
p1274
aV1DwEyNdKQzepju5jDfEcWzZZQQbjK35t3Y
p1275
aV14Hwp2bLzMfytNFBb2SnQ7t2kG5jNKUfE7
p1276
aV1E9VevoLkBqzwZZNXx7AbGXZfk7Zw3iicd
p1277
aV16uzKBVciVx5TqqSLxuKbDw6ett7ccHcik
p1278
aV19CDALxB8xiERzmg6PqHUzyjhZfCrzpXa4
p1279
aV1MB8xVLENgGK6Gm1fmHXkoRAdPjywaBLFD
p1280
aV12RXXN2U6B99g15C1C9rupVi5qpPUdz6UW
p1281
aV16hybpNDNcBzbzHAEJp5YuLy8Cz4cRMV2
p1282
aV13MmNBiHqNUiTgk9Fi2EDcEgeC1mXcUUGv
p1283
aV1DWxvHPWQmidJTjxeeZj2R5dGjfGefugGR
p1284
aV15mGLZSvRuszQSsBzFvnH6vDm1hJbUJEuF
p1285
aV1Gdb5SgXBSHUWWvJVYmXE6rE4dCAHYAJ1i
p1286
aV1696ixt4h4NDJcUR9GBiZ4pmZsDLCUa89F
p1287
aV1LdvVB7dZT85wwjCLSTjtakTUS29oWX4QZ
p1288
aV1LTAT3MQ6duWBoSUYbZR1VFWEWKZfMjmyb
p1289
aV13KRWgped5QWK8Lf2qyLNnHkipYkpWVnPv
p1290
aV1C5tPewZ2oMjUedhVm2nhYQMpoJ8VdzdF3
p1291
aV19mBc9k5a3RaHzb4BvoV4zLG4MGijr46AJ
p1292
aV1MiBKYki5UbZJtwd6t2fbETbnPGv4ETXHZ
p1293
aV1AymyfjNo4TMXXSz3tmtZksQrftG2m1wcF
p1294
aV1C9W7sqfpkcWo8yiRWhmv1othAjs1hyZvb
p1295
aV1Pof1hVXtMJ6ifmHZAAz7k5ifHZobbqM55
p1296
aV1AbSpMZebhU7q4WjA8X8LXvtxerUtQzXpq
p1297
aV17kkXbRBA8XJp51pTtSGqMXmex58JaMqYA
p1298
aV1KNiuWrkvFQGbTGgxKpx86qgKTAqSUSxZC
p1299
aV1Ph7A1LNxtpEp3MFfgKgnasU4J7rpUj8HY
p1300
aV16e6yzJ3suCsgrgBgNn9ZwXqKvdzU5APHH
p1301
aV1Behz9rGUdA8husauqnKe9ikepCVXX8gUt
p1302
aV18Q4nSko8gzQpeJpzbhVRF2Gf4j9f7bhpT
p1303
aV12cbahMa3CiwwL8BFPAyRrowsSMBS62g4C
p1304
aV1E1hur9E44b8QPFtPxNJAGD3J8Qwcd4nhG
p1305
aV16c9TzCh2Br38yKP5i86KSKwoEANGjTZfb
p1306
aV12bMUDeYHGMnUQYSZtF5RJkWXwjDEaQuFA
p1307
aV17gZMeGCmsFyrWxs8UCDKs4FoZHCrvwaUM
p1308
aV1PEWz5SBKNQNarHQcgsjAiYVrzcn9zKWDQ
p1309
aV1BfngWCSNegNR4FJWxftiqeRrNLNoD3Ga7
p1310
aV1MGdgZjyM8sZjNUtYqb4WgKUTwsbFmX9sc
p1311
aV1P9CYLUsWEijgZ84YVumFLWb6MhGsessjT
p1312
aV1NVkwswbW9JAQerHzAbFxZnvB5Bf94t1sr
p1313
aV1JRr9p3MezLy2A1XSeeqVT4CuiP5RQeDiD
p1314
aV1f9hao4HR3hLXEwotcNe8thad195enFsJ
p1315
aV1HGdoC6r84m78xF67yye9iC6bR3DtR9ASa
p1316
aV12cmpu81HLrc6d7ma5v5LcEiAC6NTYXbt6
p1317
aV1PsV4TwFigqC6r1wQmnpFQB8nXvg1ngDv1
p1318
aV1NuLreyTR8ADsghbRkHZYZYP9eizguBzPa
p1319
aV13QTdJsTJn4yeY9MJEpbvbkJP1iJEzo9Z1
p1320
aV1AcaxiSvR8hswgXnUoNcj9byvpp6pZmYAD
p1321
aV1KYDoCVJntbZVtTKtSysBHxLhY2s6SZLsc
p1322
aV1EA9A678sJnrBoA7H7xUPiimH2qfaseqLV
p1323
aV1Nz1BVeP2aGgnzktW9RGe6dsBxYHM4B1an
p1324
aV16HaKR2z2nwTzaVBUgh8qEgE8Qa7U9e9nE
p1325
aV1AeNo5mc59BKjCQgjdDEZkrbYitQscxCaa
p1326
aV16nMQbnPi5CgQB7VT7VJ1fnLv99FQ19kwg
p1327
aV1FS4oQiXxjgYKBdj61nnrxi7VJwuFRphZt
p1328
aV12RJwoXMVXPwYQWqjwqqWoBkgh4Q4VejV1
p1329
aV121Yyp6y62MuLLP42nw6TUkdTpXDe3bdiF
p1330
aV1JpYqGAiwx58PusF1s7zgUSjSuaSr58eXr
p1331
aV1MC3p2Cyf2VhsENgn55kw4aL6vC3C4zpmb
p1332
aV1QEPESpxiNet2tWFvUfWYC3zAWbcxHGmAY
p1333
aV1BuecsviJSRMr4GHCCkrPNgwqMy16B5fCs
p1334
aV1EBmZVvh5KgjxPG2J7sthFEo8Ha7bP6DdR
p1335
aV1CLjAdLmej9J8ATKBjafBLSxMET4z1AC5m
p1336
aV1EspZYCdR9xM9BMrav4Jse5SSPQscr8vir
p1337
aV15vSQ7e1xoaQmWM6PJUGwXSaJRpQmSmmVm
p1338
aV15n8Z5MbMv2SzxbeX7VGHy4LQtFRgbBbss
p1339
aV1KR8bSRkRXcDRa2nnVTEsjuUvvm1D7C7NZ
p1340
aV13s2axwKsnXXuZzpGF33EYYviVAVN7q4Y8
p1341
aV114oGrhJcnouwGYBmYQiRBw1BRw59MJR1m
p1342
aV1NMgYGYdVznwECV4DcUWdSsD3f5p9MXfvM
p1343
aV1QJJJN98QqENzdSRG9CsmkU8kaFVCiZau8
p1344
aV16b8wbRRJoPcVBoWJ6KXwLFvm83Z6mCaqA
p1345
aV1DK79eEvdra3QYKoCizt7zqCKC4oGMMWsV
p1346
aV14Nj97U8MXh3yuAXd45T6ifeMTKZWdT9wK
p1347
aV1DhPDtS6fykV4Ye69cXSk4EC3N72Z5dG6i
p1348
aV1AEhNo867wxcWCRXgTfSisYWpKLDtVv28S
p1349
aV14wsnYKNMcqmFkw2DCFAfiJM8CtCSJCHoC
p1350
aV1C5Lm39sRqb7hrhNhntd8PUDBaiN3pwnTZ
p1351
aV1Gqm9RH1MS4MDWNrKYdtxV1jjTrpxrzhv8
p1352
aV14xdg6ry3dkBUeaN8XjzJZuGDrGeLiTE7m
p1353
aV1NBSgFBaKvuRy8dvxHo59KD2KQ4c47gRWB
p1354
aV1JQJmi2RAi7qj9G6EuB7MtPxFJUGySuTGJ
p1355
aV16MyKFBHhpmxxMCrjR7xwLB2dwaVkEPEDo
p1356
aV1PA4Pvtj3n4kztHVtcs3ZxNWqmqHmKXhwM
p1357
aV1BzevidgHWcPE2rygkc9t6JNbH6e7wCpyh
p1358
aV16M9WxtRstu3nscAm4A4ku6dvk6jQXDigQ
p1359
aV1JqQ2BbAgQ74dDc3KuHuAVbwJm3wmYEMYj
p1360
aV1EaWqtoDCCunwTUWqPWxTNg94jWuuUuaKs
p1361
aV1FqqqvsBCpVot5DQ25RkHmLGv6T7tS7Q74
p1362
aV1Mnnxvu9cvMCsUN5RzQrswrKv9X8uYMKD7
p1363
aV1KhEUttG1K3yvLsoVAGfw25mwHCM5X4Sm7
p1364
aV1KEgrRGdHtT9EvJvyzQDN6dqtePqvPJTZ9
p1365
aV1JyScyZRQk12YRxY4XxFVFwvxz3BbBUTn6
p1366
aV15UPAyxkSi7kM1CEJzYuHXT8S27uc8RkMi
p1367
aV114YCu7KDedw4hsDGcizhjbNdEA1TRn7Bt
p1368
aV1LZ6hWp5h9VbFmsBFC8w7ofZdf2Dd6dDY4
p1369
aV1EtZGFs6kZJPXjTehBK2uYSrtAVfTYB4Gm
p1370
aV1Cokkv2eqqSt2o36LspLSrPpsFw3kMbJKR
p1371
aV1JNr1HMCboc38ZEk5yNZN9qCtRVwZ3faWc
p1372
aV1FqrsP2WADN3EmMWPktKX73RKQ6CUwGBZA
p1373
aV16jgrZuCQ8aiHws3tjQqkguceNYHEhBB7P
p1374
aV17HdET36aiPQK2YJmmc8NongF4HwUXWG4L
p1375
aV1HrbUcNaKuco68bMxf2jYkNdosb22MP6QY
p1376
aV1J1KQeWhieFpvTG7kYXYR32Se8w213hQSE
p1377
aV1NWusWR7T2hEPFpjt6DMLSzXQYBVKtDjqT
p1378
aV16AqFvctRETiZEwfXNrkNGR9K6j8darRHg
p1379
aV1wvP9uDK2Ke6epxQHSVzKpHVdAM112qK5
p1380
aV16fJHL1PHDxGtVNhGt1EpC4hgdBLmnHaqT
p1381
aV1MrhsfErWu1hdd4KtPUBt15aW2gujqmkpX
p1382
aV1DNX5K1B6Tk3yM3MtNuLaZAtjjmjGYosCN
p1383
aV18TcyNkbtRAgtujRAKMH8AK3SQXWFUU3XK
p1384
aV1Drq35huM2XNvhYHZoacdaLJnkx24hy3tR
p1385
aV1PKmWescQ27gYc2QcnspjEqLnJ3NYe9963
p1386
aV113qC2YnUpu3b8YwNrTRdUKK2o4Za1wAwU
p1387
aV18JRTYqg382WPYH51aqV1QXySZKSh46vus
p1388
aV194rvCoNzXa5PNPoEUfjSjYe6EgCnUhxsJ
p1389
aV1Ns8QKtjbCbGQghtgnGWxPnB3iDT8ad57t
p1390
aV15Rgz64Nzd3FYFgyepGtLViiKj4m82b919
p1391
aV1PEWCTp6ErRSVvq2WN12YVHEadnAGHhF6t
p1392
aV1KboGbg4tF3me8e78hgSAXk6giQc6NTa7a
p1393
aV13EAWG5kTFLH8cYHf9x8sHK1FuToFBURby
p1394
aV1CGUvmvXauS4QdRc11vPgVuaCrtdr1uwoJ
p1395
aV17ScSYWa5591XEhmdgHo8Zrsu7gwJy1PH1
p1396
aV17aHV6tVfRBSSKee1LAi82JqiS99KEj7Fr
p1397
aV1CwGjyuxkosj6twowwGTSZDV71VLe8C34n
p1398
aV1LtjP3Wkg8oCZUzygaVevmi1StBkHReYt3
p1399
aV183f1cpE2khavmC6WqVCBx5c2YvepbhSsz
p1400
aV17dwxNV9dwJfmKGL1vmd8W9uRX18tjWxqM
p1401
aV166Lv19XP8uhAFvdUf6G5SVth6oVVxNbi5
p1402
aV121fy7uxs7Wjb5EpfyTz4mPpGGJr8YNjzA
p1403
aV1NFjxWTJAJUDVZPj123DEveEf7edp8NiU
p1404
aV1NjE9Wv9Zj4S9TDuPSoj7NE36V98hDCMEh
p1405
aV19zMgyRSnKa7jK39pqNQBD9iUQ97E7ujhz
p1406
aV19T9P4nRJYVVnsZdApuSatXViV2sHvusVm
p1407
aV1C6s4xAwCqWWuSejhzAz39TENMTBMMN2CJ
p1408
aV13GakJjiR9woQA9b2ueLSYQCnnwjN98zBZ
p1409
aV1FyNoLDoDb4ucE5hTBo51fRfCSvHwcXySG
p1410
aV1GVdxX7P6EbKSiaV8NWeTzaLwYPoysq2g6
p1411
aV15b19krwZj984f7NkSYXu7ZYmeiWKVvpjJ
p1412
aV1G21SE6WzV8wdxL5MDTb9s2GAximE4rbjp
p1413
aV12zPSuJbQmgpLCiRejHh6UNCy1X5zi21XJ
p1414
aV1G6CDiKcsuXNvZELHGwCCpqviZegVszMWV
p1415
aV1M1RF45SLi2otLu6Ru7hH6HVemh12zerBf
p1416
aV1PaWXHP6kmAKVo11S5jDBTGay1cYDNT2Mv
p1417
aV13kazJoVCsuSFq9zhbwQdAF2B8jirSVEf7
p1418
aV1PojL8aJZANhQLKSSbtSe95zNJysmkzYNB
p1419
aV1Fb1vSSKHKYzxiHMF8g32Z9QGKFjWLozCT
p1420
aV1BD63nps2TPm4xrZ1kwgHsB72kehLzfAvb
p1421
aV1ApW8Dq6tNP3fkcSv37zy17nNEyosEu5tY
p1422
aV13ThHzgZx1yNAo6DfGwyE7a4kmqxLqMcCW
p1423
aV1FMRGe2AS1Z5isSbPUMBFyqT6vk7ot6iWo
p1424
aV1D3Tqk8Gi3j7ryu3hB8WUcyAV1rAKEMNLf
p1425
aV16xSui6BEmrszXbRPDshA4Haw5ZBVzMh3u
p1426
aV13Tk7UUp4RyA9cB4dkYPJJWZDM5r59ynaR
p1427
aV19wd6YWkdHAC8xppEUxYNMwN9XugHcrTT
p1428
aV1PWiWGwkQGyKZCtZSfqzJNiKGwCbTok8hD
p1429
aV19cpmuNPuMZvBF46WB1p3F9zUMMNiHWmyG
p1430
aV1Hy8kdekwAJipJFnhHqRr15ZTw3QrcoSQq
p1431
aV1PA2Mwc7kywoNpjsJJz4qYWnoizmv2N9CM
p1432
aV1NoG9RfqN2UMk2LWBn644icACuSDuJGcbH
p1433
aV1NsLqNSDWoius5Z6vSefQG3pMSjvEtmJb
p1434
aV13eC1iWWexvmVKY92bj6Jfax3rkA9zHAfT
p1435
aV1HBkePxfBxQYvfAvN64WvdAqHwbgZsLMZr
p1436
aV1Hd11hfRW8usqFi4zmrrhE9exDRwmguHsf
p1437
aV19UbyjRs7audooVsPGjhbW8hF4NhW5mZbH
p1438
aV1BsXNHcrQ7VAhbdYiSY1LjpFziTu7ekHdD
p1439
aV1wR1F4wKYY9pHHiQ3nygZqoK5ToNPWXG2
p1440
aV12ezfTenAvdLyGL1Hz7TPzpg235FYCDwCU
p1441
aV1Hxp5RGCv9uKztRMXGK2ZRbamgv6LBB7Bb
p1442
aV1C6bWMc9dyQ2CjhxtXLv3SnbgabxYCKUg7
p1443
aV1ve4TYFV344Qj4TEinbtFhMz88LkkunPE
p1444
aV13diA3Rhf6LUJvoHf4mdjzaSDipDygocqS
p1445
aV1DgQj8TysDLmvtq8c9fcD2MFRrBLnft6tA
p1446
aV16gFttL8zjSCAs3gT46hE59xd4DTz2GU2j
p1447
aV1AEywcuzkTvQ1bwxaaiJ2cCXWBxdk4YpSV
p1448
aV1KaJbdy2JUvhHVXXfXSVuXREsUe6YzTppy
p1449
aV12BoW5opEbLBY46RYMQmu24qbucpAzaHdb
p1450
aV125YeEDwnEQeSkVLhSc6tSyedP8eMQWd7A
p1451
aV12M9N7BpsNPad2z4FtNniLd8oAB5fSHYik
p1452
aV1CsbGExHunX5SseRWpPs1L78SRV2jn5jxt
p1453
aV1Ns8HJYbgWYZ1N3FSjM7qCwdq1QeaBpBvz
p1454
aV1MuctHdZigVLT9p9e4WyJyVnWZZU7byjFu
p1455
aV1GANFmMkMdM45gnpo6LcK1MWUH9u3SBzbc
p1456
aV1C68sxAw3RSaBd4Ypiuhxj7LDkvvvnZRm5
p1457
aV19hB4YjG1DZ29LTVgyMjqGWgocvaL3DwZV
p1458
aV1KAy56RjSvhpT7gaGu3iZPTHFQuL913BUM
p1459
aV1N4ttTVbDbTPXm1BL3YfWtLbd34DhLPLZe
p1460
aV1WUeeTphQ7qLfqV99oQge1Bb7h7NfszXp
p1461
aV14dDQtBbp7PtriL1oBgTBGhqkam8RgsPvE
p1462
aV1N9rSsMrTfRSSE4aDRkcw7m8USPo74VQD9
p1463
aV1BqLnoPr21K3b1ZuLrtZEpkJkJeRLCTRsB
p1464
aV14VyFufa4Z8BhVXV91Pu8NNqusd8eiArNW
p1465
aV1837nFvfu4vpZkbr6DS7Y6eBGXJ6qHkMzv
p1466
aV16thLfWLDqijFRQFrFRMZJFEVLfFyDJYsy
p1467
aV1S3JE1jWx6deQUAAiFtV4i7qAtHaBgbAM
p1468
aV1DoAjux1y5ccesBxWFVhmLBc9p8jqajjiL
p1469
aV1PMEwzBKJ5wW6mauMbV4Q4LQKcZdBmW3bc
p1470
aV1NpTQRGMvAQ1wDSRfi6FKkR5VMkwhR8ivR
p1471
aV1HnhTBwmXqJja4ayEoKMeiCyNmwwiRg5C6
p1472
aV14HmbNyqPt4D4xK2taVnfbWEGmhusTukTC
p1473
aV1756TVma5xoauuBuzVKYcbz2j6hJ3D4JqM
p1474
aV1F64p9z84csxipQTEevk7or9Q2ytGF5Diz
p1475
aV1JpomEsBQ47BiffE69jiHJwgxVyEQVGnry
p1476
aV1B3hTusv5fyjvkzNqyn4zsdvh2E4sZ62kn
p1477
aV1JyTuZuu2GtonofzBo4UUKi4tvVcZjsx9z
p1478
aV1Ds11JFEZHLpFWW9vUXmsyj9jD2mKvRnF
p1479
aV1NjVYnXHRBhuX25EdhTkcNc5JxWQzhJd19
p1480
aV1GUVPV36nFdbSEfkgNxJqd28uSTeFw7MiK
p1481
aV1BWo4esrnuhEbU6QEsDhbR9m39rkJc8s8W
p1482
aV1582hPiDKrV37w73c4FSnDEMnVLPLtgWFi
p1483
aV1BXXj2CWV7EfsMyMFWAAnfVF4DdbprkRqK
p1484
aV1M4Dx1e21s7exiCizywjqWbZ32nUyeT7X6
p1485
aV1KLNQJa8fkzuNz7uZ5M3NPDzwj7YEY8XnA
p1486
aV1CkFprAuDXDXCt2X5kY5DJmCLgPzBJgQ9t
p1487
aV1EoH5yJ2FXyLH5UTjbcTAURjFT6mnTEmRq
p1488
aV1NbW79krfZVTbdcXCfG7FB9sEw1tEdMr61
p1489
aV1q9FTnJSWSE742x1QiorxtdByanteRyyM
p1490
aV1CiMye1UvasNWeTP4ncEh7Y4o5evj5NyT5
p1491
aV1NUS2DQ8TgjWqPQ2wgdC2gijogkMzqVL4R
p1492
aV1JTmxUiNNw9UQKeU7ecomQtxBLuwN2whVj
p1493
aV16Mi7ZKNLYTp2UysZjYDsCoHPgCX5rPsHd
p1494
aV182WKDZwdNwqqQz5tjGxp8mLsFnJ2Q1MpJ
p1495
aV1BsiAzvV7w33V5hJjL7SGvvh6GEVbmkT7i
p1496
aV1Egv26pThj6m4FaNTLRgLoK8ZJxobVZQoW
p1497
aV1C26fVpULQC7hwAUjugeDRtN1Wqo8wHzoz
p1498
aV1GeNKK6ZzosbMUMwgEgUAPPgUEnWT7rMQf
p1499
aV1BxYtF2ki1CTQG39SXAMkxNcodPxXQjfPu
p1500
aV12FjvtsYNLvVAGBQbAbJ7f8EP1dwuCvhuH
p1501
aV18danLCdfBXVeNUPrrWjZPsnJQyzZaVDpe
p1502
aV1C16DiQsaNkgUkU4CF6MDagtPyvFotzBAj
p1503
aV1N5VzRYnJZB78rnXNoMRdEkhAVy3tyoYeY
p1504
aV13LE2KvwqkmwvhQ5hrEULRGH52aTcJ4WcR
p1505
aV1Be267LHKQhL6UT1XKKqN3N772wAroMmM8
p1506
aV12b4MYHj2hdPeSYvA4N7WCKL9PNvN12Qhx
p1507
aV1AUQ85pCK5mwyQuro2z1xNdSPBzJkvcjre
p1508
aV16r2udqRYeqNY6uYYcntDRPaQ5wijofLT9
p1509
aV1D8td18sDzB7BGLMXJ2DauCC7Vm9fv7QxH
p1510
aV14MkmHVXE8oyTtEfsuLAKqvezxpbBVgttu
p1511
aV18Gp87U1ed2morbbrT8CzTzvGxwMfng1Y7
p1512
aV138q4xL8QRJd8jGCqB4KHrdYY6RvKsfLVm
p1513
aV1Ch4HXSQCv8EzcFDow5A9Pyjxfs6i1geXg
p1514
aV1LsTyURT1aDXw3hBZyqT7MeyzVRiwXUFpB
p1515
aV17QfQhV63bYJ9s1Ya3NDGxbwqULRTe3Mvi
p1516
aV187CiQtVVkX8a9GxCr1cUj1vqYBSr9Jb8x
p1517
aV1HrZzXNsbM1aNvL4PgUfNGj9RSDjbHk9VH
p1518
aV1J6ATcodPdLNhEMjkBtQoLxsj2cTWvuCcw
p1519
aV1595zr8TMqHr3LkUY63mAG2vUoNW3d26DA
p1520
aV1B1DFTauxYJ7YSW384uH8a1bagRk1MhVDm
p1521
aV13BSxn5Gtc2cvDtTEEHtUXLvLVezGQsYjY
p1522
aV19MnQzLb6UBc6JDfw8t3uhMcT2TQ6jA7oC
p1523
aV1LBXG4VoXoayG9kVZWrSvEo1135nAdNb7T
p1524
aV15rmM59kZeEJnFdWHM8pBaZ9Rr6Wq2kTP2
p1525
aV1CDnuT351T54bCfggwUFEbKCDDNEJB7rMF
p1526
aV1H7SJkP8wStCUveP7eACtL39ffuq8UUihu
p1527
aV1QJFsCypAEEygjgoXAZzJefjdXahHRn8Uu
p1528
aV1MTL2pvQzhzcCnyuoeRJ2pu2VhH1YeX698
p1529
aV18nPepJkRgHA9gFJosL5Y6cfPsi9o78ngr
p1530
aV183Gf1GiNkx71jC4zYNkG9GZBpkaZW83Ej
p1531
aV1NhoEuGLREErjQcXofCohEFpxh2nxLB9Rq
p1532
aV1DtyUdxyrBQsveYkWVcmqwxT6ga4icRUry
p1533
aV1La9uPzstZ8gyC2RHfhfMvvWmsXavdMTve
p1534
aV1PhL94qvVr3SH45MGRPWUwsvVG53o6P8Zq
p1535
aV17UpE9w5JAKKbQP6ALTw7SqieyAurAY7Pt
p1536
aV1C2SqMka6gRHjY48rh54e3WVDEe929aeiq
p1537
aV1K5Lqb3NK18DfxJnFJaA8eVGPCzuMw6Sjm
p1538
aV147uwe4XcW2pb1xRgUVBydtuK4hCqSzeZK
p1539
aV1PULKwWW7x2chCYntWNJBeCLoE4hh8AT9u
p1540
aV1EHrbbo2bNGCoftuE2TwqQmYeBLtaBhRTg
p1541
aV1HaKJqH4ihwQufHRhsmnxXaxQgoCxWxqz4
p1542
aV129azoqVCSkHFPrzNcMpWQFpuZNhTD5RG5
p1543
aV12LUNsuJTwbhkrV5ZFLET4xGyHM9StSJAD
p1544
aV1ENBQ6K28gfHDV6q8AWj3KYMt18AYGmZ2V
p1545
aV17A7KopusUCZhM8n55s6UYSKWXKBuFZ1s6
p1546
aV14Fw2cpN6pTm7fgGdBqSsESkfBY9Yg6C5u
p1547
aV1CrcxNKEYKwnVzESkLqKTMoWYpeh8Yp9jo
p1548
aV1JT8bmjPCZ9kAHHf9cbDVGVwV2s5BQBzct
p1549
aV1Kpkce3wcbvo8D1bo6zw5JZeo5QLH8qCXW
p1550
aV19esARgwvzCtMaCGz3yn5iAKgwvVKnqQda
p1551
aV15xBpSbRW4FfcT2VAzGAwnScSUfMmaBE61
p1552
aV17fySAALrcDjjepeMcPJqfmxf3BqLFbMR3
p1553
aV13eva9HB2ZnzEFZNc3hQxBiJmVsh8CkaAv
p1554
aV1NtP67bNMuGyqcwgxDs9vzoZRpwb9Ab1AS
p1555
aV1Q3Y76MMn458FBwVBZH7zapopXmVtoWP6b
p1556
aV1HomCLv1NbwV1yKsdwZ5rvZ49gkweuYK2B
p1557
aV1Jy87PT6EV5QjrRJNicVbX1Y1u6rZrPL4Z
p1558
aV1NQZuzppwfM3rCkv7Qy23ABdNZExGmziZ
p1559
aV1Ktr8J14nG5ChSRZSTHxAVcy1UVsFTbBnZ
p1560
aV1Ngug4kBQ3AxuQKGF1BAgVvPVPjhh3M1Uk
p1561
aV17iizAwFDTs656BfU8BQoiC4Rrme18RvBb
p1562
aV1LyVs6eVhMSkRw12qKK9VufP4yDvxrk6Gf
p1563
aV165dvFSc1bSDWJwNNdKdmjGJTtDwEQyvJD
p1564
aV1D5VhTtjW4XpeEKds6J2GDbDukT4pdWyto
p1565
aV12Cuijzvb1YiMUWEEDHe4v73WeQSPWh3uq
p1566
aV15vk5nK8yv5WJqvceL23Zf2VDfpAwbtQtt
p1567
aV18Vhv2SZvYCw22mcfxebPZWbzunQVp29kt
p1568
aV1B53CfNAF97o9ANHv31qngzP8w7Q6G2FeD
p1569
aV1BJwEc1ctKNk36t2wx2nxCvt588dGpq5Pg
p1570
aV1ABBizBckMBW4TQDU9UUR4wizEyR1EeUvG
p1571
aV15Po5T26Cd2WXEUm5NoUyv2zjxyF8SfFzo
p1572
aV124j2PX7Ksq15Yq5Bz6kH4juFkmcruX1N9
p1573
aV1PjwjdbUYmJBcUbM77xzxvPZbD6BZDn1Gw
p1574
aV1KiZDZv3wwL7oM3hh9bDs6E36pXB89YoHQ
p1575
aV1EfQfsjRKKgJJ2RRjJYLd5Tn83wwD7iGy3
p1576
aV1LD3JuS1nvibKBS1uGKuP2DRw2aXCy4e37
p1577
aV1282hNS21CYADcSEy7xCMFif962BwSUDVw
p1578
aV1Me52EZf14Y1ypDv2TmiBdBQPbL2yNqT4c
p1579
aV1EN1MvdcD43AvrxgUQN4sdHMW1E94Gtaem
p1580
aV1LWZjwwxedzKncU4C7ZJqY8NpLJM1jMu7t
p1581
aV1PNNVfGRDM3RcG4KbNYEmqBip7q2BKNnaG
p1582
aV19MsTuh8WZpPhHBfUbhGCbijbGtPoWAbMT
p1583
aV1No41vt44eHvBifEiaGtAb8uRp54dg3rwX
p1584
aV1Njpo4ECQXrpz12334tydr3KygbRP8wbYe
p1585
aV1Ei5ZzGdGkpF6EWuz45ukh8AQLnuxzpQqn
p1586
aV1CanvBiZy9pZKLFnqfqP1hdfkzpRh4SaFz
p1587
aV1CcQM4GWAcvQnHMiQZaKmBYabnQjbmnpSw
p1588
aV12gkn31xZD1yxMTMhKy9vHP45qq5HsAdmU
p1589
aV18rCTjFs7DrwHDBinPEMV9Lke1RA1QtDHo
p1590
aV14wYpmB9TB7ZqA4a9Ws5Z9VqCNBwyuqY49
p1591
aV17bLGw131gTpJx2DW6AVdHV6dCSAEG8Fi7
p1592
aV1PdsjvRgjkNdqUUQ9TbovkeCKFwaqJXQMZ
p1593
aV1Ns5ynWVXtEHbsFyRyjfpnr8vejbssUvaV
p1594
aV17JWSYfVXU8QEy929QRUksvi9hDkTfaMUX
p1595
aV127XQdz4txu5Ar2i22n4xGTjJwcKAezBSA
p1596
aV1AC44P3XgMcUbo5DJkSyW4Eit6AXhsjaN2
p1597
aV1svBsBMk9Z95UWksTc2aMj6b48dCRQVpQ
p1598
aV1N5qSA4efnFLzGzPjgEmuAjxhepMoam5Ha
p1599
aV1BMkmjC2To3FDieQQEpDGuJDwkh1FVTro9
p1600
aV19dnZpDDYWfJxokAXaJiqPYXJ7PDAwh3A6
p1601
aV1F2jjgXSodJSKeKB5PKZNsrVaxKaNqGQYX
p1602
aV18UMLX4aTGbGN1RQGvoqyC6neQmkTYU98R
p1603
aV1Ji973AiU9jf6XW45tSzzntVw11r2qU9yR
p1604
aV12CfyJGgPAaRRHDKtNLkNMmXQBtYdmDGy3
p1605
aV1HM1WWjNsdbsoTp7AYpkHdodKr1xuQe3Qu
p1606
aV1BqqPEqmxkgY9QRFvbaLcsM6XGipUYKRPX
p1607
aV1PHmYVT32tAoHw2vFe3ZaRSGoiqY8LLt7d
p1608
aV1BGB2WM9PMVqQfuxiFSGoHWN8ZDs2z2xT2
p1609
aV1Mm5KF77e4DCdWSCF6cXSGciDxsZhNk3P8
p1610
aV1iQ1wa3Md4SoxwL9CkooEHJMMSuX5r5Yn
p1611
aV1BgjkJpwb4oZXBnWd4cY9oWtfzhFQMAUc3
p1612
aV1DwL7r4ZYk2WxkNjuDb9CrEvZF6TpPgnEs
p1613
aV1JCQ3nF6cQeDo6cSdrQhhEGNgRguF5iRSB
p1614
aV1MgTQpWMY3SJZvgJgMV6yCBCjPRM8iPFhu
p1615
aV1MgmqGmPJxKmu4miZZysbnw9xtDzDBcXn3
p1616
aV1Ja2VJ2gf64eHSEUMuJfL9fZrSLGDHFpdu
p1617
aV1K5BwUKnKdgsxBZQ4K83jvvfCNKeGWJMEd
p1618
aV1LwoXVpVqqpS3eFZwct7BbjCEJeRhYxqyK
p1619
aV13jqGjjzLU3oCWJM8bVAcVxB4raumXdSCS
p1620
aV18LQXbDc3CuMxqtNBxWSizWcup4FGrQ8EK
p1621
aV1CCyUWuyBiuUSm3sTDMpxe7sS4EFQHFEz1
p1622
aV1ByCpuuJwcu5fmWeRFhnPLCeu2Z6H9V5v7
p1623
aV1AMvya88a2dR8px1BYEoP2cb1R9NkiJSPv
p1624
aV16hwLqGVy91V8xyG1jUizMAp5sfXnyZSBu
p1625
aV17TS2enX6u6xxhTw9mxHvte6wfQU3NdwVR
p1626
aV1Dm2NiQRNRPzidp1M2sd7YHtWeYF14qUfq
p1627
aV17YnyoSc6pe1JfoSfjYDqBTDYggHjgmRVr
p1628
aV14Kab3dzt1r9b5neEQM9piP7V5eM51Ze83
p1629
aV1HjUv9NJyLkJYW1idd1Q5Da8m6sFWxPGzQ
p1630
aV1McciF4vN3Kwn4AJA8Sv54GcWjDSC5PZfD
p1631
aV1NCfNL2Piw37qr8CnxHraKEZwvLxM1fxUf
p1632
aV17t1cguLe1NJaKiUTBZh7GXTB7smQini6e
p1633
aV1EcAmvHqMtfDfim111ZsWhsKjQJF5bgxgu
p1634
aV17SQ2gAMnhdGbj2VHCsGqedC5iXsp8Keia
p1635
aV1bBqLWYreccHziPhHfECwJZUihHoTgUqv
p1636
aV1DoZDsbx7FkqJk6FVmx3NBQcruHjQvNpKN
p1637
aV19g4aNLQfA92DVDxACSibPf1w2RhVZzeEr
p1638
aV1Pwcbk5VK3uBWunBnGJVZfJ9mVoSooQcrX
p1639
aV1HVu9zMLcbheVhSW58VWVfmgf1YJmUkSPP
p1640
aV17JSMGhZAXCQZXMp5sMmiUWbXfnxbLAJLR
p1641
aV1Gb51H2cYmB5f2HJc396EQrGy22B8hbkXG
p1642
aV1Kio5USDcbqfedcNzSBZdGya4vZcVqoXNM
p1643
aV1EiWwhXJxPqeUUjkVw75ufgwunQGbsUTSy
p1644
aV1HoPxTE7bqnyiWafgh2jyq4nWHQLv1n8dh
p1645
aV19Aep89UabXt9F7VQVQ3swdzBw7y4KQCSn
p1646
aV1PuFjeLvwztvi3AvKwK3pZVAiz9ADeMPNW
p1647
aV153M3yACLGd3KLjXigxxYKM9VyhU6GPAxE
p1648
aV1DoApU81FhLBeGdPNVCUwtnNXvGXTZgDAu
p1649
aV17b2MuheMijCwAnqSEAJV5mjpvPbLEDF7s
p1650
aV1GAYodiZ7Q67Ajajv7DXBvyb7LpPkpqHHN
p1651
aV1BmqhbYYCCfTYKug7JjsGytnFXpVSzGMFv
p1652
aV1BqZsMfYAstxiMxHTdqh3BEAhtbH3gXAEk
p1653
aV1PqkYx7P5gGJmf9izLHMQ5tBUwcjxKLUix
p1654
aV1EBN3MausSArVvn32y6tATF5MXKfRXk2Vf
p1655
aV14dEkm7Foowqye8xNfZtN4bEkkyz1cTvzF
p1656
aV16ThDcFfCkbFJoqr5NvAn9JMEPWm4U9L3i
p1657
aV18Bkz26NsCo8MXJWoW1KoAUXe5oh2E9Gxz
p1658
aV1PBZg4nNw8pxghsA1E3sKuC4arkgGQFbN1
p1659
aV1G3TemuzkCrJuMFhkbjp2CthAJw2KSf88M
p1660
aV1JaS9L5AsTviRPB5jV7eZigqocK8oZJzwZ
p1661
aV15Pq9etGBYjgvSRDKbtrrJMxPnraCS48A5
p1662
aV1PXcQbzwMzuGZwfaFfZ3ae4YedPVzoLah8
p1663
aV1GNysHHvZXnMZj4YUAhxjdk3n14Q5MQc34
p1664
aV12qtDiXNdFqvFKZrpkiijvTFXeqUVcuzPZ
p1665
aV1AxGCJzuUfKHwz6mdzJMCtKQgx7YRDJGKy
p1666
aV1K2zvhwk2HocyD8S5qfE2YGQV74Kr66Lxs
p1667
aV1L88Qnc4LadH3o1szhXTkj4KU9DryMzZHQ
p1668
aV1PtnRRKTQ7Xp52SRr3LuNYvMi5Lvtkj57T
p1669
aV1NTmda4BkKC26cXPDMmN6WxivUsQMBCx1Z
p1670
aV1CcscEKqSb8J954My16FtAByTXqNEDrgq8
p1671
aV1HjkTxBc4wchv5avNexHkhX4rQ6ANpndcj
p1672
aV1ENaMJD3rrWdahTnxzFp7yWPW523zUVQpx
p1673
aV1HfyfB1Mb4CcN1ZT1mk6Tx8rRQNZ3BLoKc
p1674
aV1LYhu5pZzaU5TCePfmz7NccnYwj3v8oVtx
p1675
aV1B9xFfVdLhLGRMLHvph9s7rGVj7WE54VeT
p1676
aV1HxeshLwzFwVZG4cWgFTu4pv7fZUaJspSB
p1677
aV19tK9RAEoDybNg6NZCP5SwJQVzHV5rf5a7
p1678
aV1GyabzPTYej49XyUnFWsS99LuT34ZAkFxs
p1679
aV186hZTkGcxta6fh9sDqpzDheJdsn3CKMKH
p1680
aV1F2so1MxqcU1rYeYbQhFiCbvFjgCokZgoL
p1681
aV1GzfMrBR8eccFGKptux6jawMJMju6G1vs3
p1682
aV1JHGijCkv8XQYoABPi9dWuiS747723HV8z
p1683
aV1HuL6yWp8VtrDzhg1QvFxKxHPxL2vc3Jo3
p1684
aV19ZDJivUFTBjPCLPhK7sTd3YK7ZYybsRJB
p1685
aV1DyQpBXn7yGQ7JJjT6HmetmoRC3YnmBHdM
p1686
aV17RAQv9i3eaoskeQFJWimNLiq21xruLDic
p1687
aV1AzLWDnme9x546YWGqo9haCtZiVtm5jwnP
p1688
aV1B6aMR7DNp1vW7KAudbXEmvzt6UHdPGeX9
p1689
aV1EL1JD5srEThcGHDS2AgRsQEngDJvLdNWy
p1690
aV15y2UzX6J2Sbi3pqWWuvhAMAExWAdKvRzP
p1691
aV19hMA3w6BBzmfu7E8A1fL6CUcw3aRJZpLc
p1692
aV1HVZa8X97RyyzhTNk1Nyhj3hB7U85LsefZ
p1693
aV1L1WKPxzFYKpd4qdiob1xcGKYEyDeRVjgb
p1694
aV17Q3Nj7beSyPVhWsjvVA9rhtpynyukUNAk
p1695
aV1HaTmkfJQmTyj9du9G2XmiSMhtpaQvMDf6
p1696
aV1Ji59EQ5gso1TCPtGeaw43eCJchvypzKRS
p1697
aV1AnkSSnZwBzzUxRs7a53MEhFTwNrMsa3oE
p1698
aV1Fz2kEsu8yPCayfijDhjyezQyuoK3GMe4K
p1699
aV1CSrN8jwiRW3fWBg1dghvh3DvPx1wi9z1a
p1700
aV1A6SEV6PLoco1ZoHcvbKCvHX5Y5QZP8Qk4
p1701
aV1BrRfmA1hicnDLUgMQ55uqqwwainb7qS1t
p1702
aV1EsrArMdQhyNBK783DEie9wztF976PSVFD
p1703
aV1H59x2xT1A1YoFgz86ATLfdN5Juzns4EwV
p1704
aV16pWCzSzHkPAPvLsohK66gTHSh5XeNF32D
p1705
aV1311zvkbiw6TGNc2HoYPpeD9BfoDdcHtS4
p1706
aV1HBxzbEK95Um9LjjXCQYzjKQComRcFNmkV
p1707
aV1FM9r6VkRrqL1stsV4uzGMpUikwXvFZEKV
p1708
aV1CuRWsTEq3MhGLSvngh7zJDrbDvNCbNaEf
p1709
aV1HnfVUni3Qv99uFNvF9uVE2P3XAPJsfeqK
p1710
aV17fmYoAcHTLBRL4iX9Y9TrRGNeS29m6KXQ
p1711
aV1HC3SxGtg64gwt9n71BVZfdvMNRdnf1U97
p1712
aV1NhCXmtsW1JgBah5WYt1E8uygBEooU6r73
p1713
aV1MXCQgquXqyYKaevWFo87KxVJZW6t2phjH
p1714
aV12SPX5evoPXJPd2Ufn2m4XEfDAGRWzL7Mp
p1715
aV18mjUrziJovsU5NDeD6ZJgtXUsSgSkUTuM
p1716
aV1AasPqmdVeWuY3sSeqQ7WYhfHEKNDAT7zs
p1717
aV1EikiMe4A5kKxh66cx8xmRYx7bARkCNytb
p1718
aV1DhFYi5q5tNFJyLe82yTJ4MQPWjJsVtQBp
p1719
aV19B6tFG1s4zwoFX9Hbs7gqUYgXicBkXWCu
p1720
aV19QKWUGxSKioxnGZFJTxznAE6KHFGv4z6i
p1721
aV1fw8XsJBmgWHy61NoCZ8W9q2xeJJFW4sY
p1722
aV1JCqjh2uUiocaZUC8JXsaSFgX8V38ytBE7
p1723
aV1GqtQPL5Q2MCz5ch6GW3u9TDokaE37wbwX
p1724
aV14MsKgXitkee5mMF6e4jYDWuSHdLszbCWb
p1725
aV1LZxjck2SmYVsBxdDsKuKU2onRnhVFH1gZ
p1726
aV1FhdR2TYTyx6eqinCpFaNDdHroayWA1PKZ
p1727
aV1PNMM7C67zVfkkJJeTWTsmjBPuQH1CTvxr
p1728
aV17UCsGq62nuE4ZzdvBzyGxA32VvWNEbnXx
p1729
aV1LdQwnxVFpQSz9yHpX58TEkTrnEeQSxnyF
p1730
aV15E1y8iKaY9VsxQxQ778vCKBMNW39M44Yw
p1731
aV15cnfGwD9ZoUZvY7CJ8GxkQxmAa9d38Zmd
p1732
aV13RuqqwdiMNanGcYmbRqd8qmc6o3Cu66di
p1733
aV1CXUVm3bULSGx7HWTt1aqiSLdNdgm62bJm
p1734
aV1J3gzuKv653rNuffE4LUxdLwokyQMaRA8j
p1735
aV1CFcfystiPCUH8x9TVZJ63VBksqjjGF9nt
p1736
aV16odBdBoq8kVFEqi1sj1Gk5E66UZkHGNHA
p1737
aV1D6pXFbgg1pLQqNoVvVrnFe3sMUTcvn7yx
p1738
aV1NuQUHx7JxabsU2uuaxozxz2KW8mjVZrc4
p1739
aV17Hf7idjTy3EiHQeBSyVRfy8HTmhWXXiAL
p1740
aV1JNZyKk6p3Bvffve1jLCgLkzTuWvksCY8Z
p1741
aV1NcGFzZMKy4nuxFiUKDkdYnYGHsuXyhqFu
p1742
aV1AwoyGnXKKausrbFoUbGBmc2VEbueMX21e
p1743
aV1Jv58wXuiAXvzVZDmZLGs6EXAYf2YMTkHw
p1744
aV1NddvN9GfZ6pJzJDjSbJwbnB43Q8KveDgH
p1745
aV1LEEWFMYunnh3DD61dgwP5sBtvFPGdASg7
p1746
aV1Mzq46SmxM3VuCwyntt4d2Ldc1GSK9yWJh
p1747
aV186u2qSa2LiHzd6nUwm4eEVX4tJTh5Q8nj
p1748
aV168Q5ZHDBJnDWkAKi9X3pnXrFUyQq4AvpG
p1749
aV172eQW3CPVLKCcgkjP1L72rDQvkGtnxbYy
p1750
aV1LkW6j94GwqvKksQhw1JSrAyEih5YTV55o
p1751
aV1JrxnC7oWbPTH1gS2Mr6LRs2wjDMk2qQgr
p1752
aV1B8jcqNSSwwYKPe7pvuxuEpG4hBQXKn67b
p1753
aV1FP6SLXrFo4dczFbtnp7KYEpMeR49PMFPN
p1754
aV1EtdbqzwazdVH5EE42ZAQHnaL5nP7VV9nx
p1755
aV1BvTDxGExyLJrcv45iv7RjWH8x6CDD8x1M
p1756
aV1M2vYtqw5jTUXCEvahpvDyPumSg2dVNErZ
p1757
aV17KuFSjphxhJdD5mXnGTfr9rhUwFHvhHkx
p1758
aV1Q8BsAu7GxZxWxMNJwNfFzs2rZvpxiGhEm
p1759
aV17H3mZrwyVtJ5p8sEAcw8CcF8NHyomsPrk
p1760
aV15QmZTf3VDWkLXNHqTpRNTj38uVyRSutRK
p1761
aV12JapwwFZ1tNCJfY2ABfiaNarKvo27bjCJ
p1762
aV17K1uzjRHGe5mJz5bBgVNdrtW7aKR1N4Lg
p1763
aV163YJw9Wfnfsdfk3HRdMR1FuTysuR26KQv
p1764
aV15MRRqQahC68HeTGVmTseuTjkYDhKD271y
p1765
aV1CwspBGQqDZ9xf1JhiQcYhEkQLA5b2yfjQ
p1766
aV13FCejTpRoFvxcKg18Df11oVhJeVbUM7MM
p1767
aV1AsyuN8j1vbAf5ExbW8xz1ctbigA1SoTgr
p1768
aV191KjkHhcz59B9V2d5GP4ofx237GCWMZdS
p1769
aV19txB41EqmB8ZNfKD53kwPvcpTPqBnFeUm
p1770
aV17eXdYY1q9f3gwhZb56jMEqTpevkMhVC6M
p1771
aV1EQzeFW7ZY6GAhgKgejbybQAShKkpKDrAP
p1772
aV13jW6dJ1o4Co9LBAmcwecvGr5qTaemQ1aZ
p1773
aV17eqvPFoVjHmhHmVfkuiSSXRMwBaWZ3sJ
p1774
aV16mx5o8Kgrn9KDzucdz5fTzVJ51p6kQoQC
p1775
aV1FccPqfAhpxFdkzik1CH65wrT1DJ3KwqVu
p1776
aV18Whp25CSTKNeARfgtBAtCbk1nZc3fZ3Nr
p1777
aV1N7TNDEG5XXP87xNcnv8x84cJ5jAgdJq44
p1778
aV1CTS5yDRRf95eDxVFvcAa8r5d41pfuSNtR
p1779
aV1KcAmK8uvjjhT9a5yPo4yqbHX8GM3Nwo1u
p1780
aV1PE4zuKuxTy6NagfvxNvwVVBMpYxRxig3j
p1781
aV14JmvrMwjSoim1h8E76Jw6kHgKjVGzAcfU
p1782
aV19whJ3GaQKB9yPkC6WNRuz637n8EVG2K3w
p1783
aV18QG9ibyP1arJTaB7uh9pJdtix5pZLhBNG
p1784
aV1L64bAv3hUiCpgy3bsEuq2Lr2VT5M5Tjq
p1785
aV139xcPPHrD6LBs9An6qdDzveTf2ZuHBGWJ
p1786
aV176wiSmWMBq8t7FG69BDbX23P2GdfXusMj
p1787
aV1MAunA4wecUFPuKwJh3ueHifCMGuZPPyox
p1788
aV1LMGiJyyN3BhoNNfZtY3oRjcrZ5PAveuYJ
p1789
aV17zse5X93Cd1bv2eaDqbgH6zRm1xkKihHB
p1790
aV1KdsuULH1TdHeRRiod4hPMLCctJLhWWCcW
p1791
aV1Eb8V4r3gu6z3nUen3YjVdvQV6NVEzFc4N
p1792
aV16fYv4eod1LkpQfeQDCChL6RU3njYGjUrT
p1793
aV19iWfxstXNWzjpQH1bUK19Bm44mHtepbx9
p1794
aV1K57W5XBSQGfiNijBTCbmgi2WTYyc2PW4G
p1795
aV1JP97tUCgTS47XSXCn9pEDH2r961ZqnvLS
p1796
aV1FXRh42hyWhT6Zp7pM6T7nvDq24f8GcLJT
p1797
aV17JTeo3beFJJeBMcHcY758JZU24KHztJPB
p1798
aV1LgXJcZwjzwhmJEicjexXPbhG9ojXABgc5
p1799
aV1DCGCEodJCKWogH4a3Wo265WdcWtK89X9U
p1800
aV13WLJV6tzTpc5TsqfbnLwsZ1E4d77Rr5fG
p1801
aV1BL2CNZB7aaeHyZRzWpQ9HvxxJTT3HDnwF
p1802
aV1Aff5c5TUPK4kSmo1Em7SBnZHXAsbbBd4U
p1803
aV1P1S2Kb4Y4pn9FP8tPVT3XJ6mtv9fd4Yso
p1804
aV1PMi3Rft9wBBJ7SrrVTqqcvvAWagfDaynp
p1805
aV1CFtjsod6QdGDqZuNLX8u1UDGFkUbhpJ1d
p1806
aV1EPeC599ZsNrMMbNboLVVwLarfRmTsvmyi
p1807
aV18zAo949zp97WLcE1zSYbDG9wYWxKWgL2G
p1808
aV1K8t2uL3Puibmx34ukAkbPsQSs5iVj7z8e
p1809
aV1PGyrn9ozfqqke8gQ2g5LKAVdmTajuo3Sj
p1810
aV1Q3sRNzPNrdaAtGsMYhUTm2AwaGJEeUcMg
p1811
aV15bFNzfrL8X1wf5UYP42Cye6XytUEVkeRL
p1812
aV1D1C2pBxCYkJcdDufPDXQ1qb8K3odrKeqN
p1813
aV12c8KxHNRp6RciFDWM17dFMfbbMKScd1cb
p1814
aV1GbdjibUCkXKgmsP7ww2iziA6jGNnPtLxM
p1815
aV19XbLVM8v1DiXCpNuHBnu5zMeznFkGTMXy
p1816
aV1KRrdc9NnBLubqqkTFrVKq31mzcQppk6QE
p1817
aV18MJQTHc8BXmm2GBt9Rh5xqcZ3ize9W7iv
p1818
aV1Aa9geQzan1Segh9gzr6DB5TYvd565LLX5
p1819
aV18JYBZA7w9EV58yt5DftbKKbgi2z36fGcF
p1820
aV19i1kGs2WERTjboTtNgMymKB9aMqMKXabn
p1821
aV1CU2P3NxUjhzi6Egka2QxiiZRX6RDHGaRi
p1822
aV1PwC7djUhy9ARUZFrEDA9KDHgBtRk5CWdq
p1823
aV191iSXqN9pjPR47w5MDP2YWPgFkNAE9N9s
p1824
aV1MtNoCJwCEML74pkUrwc4nrWVrSmB1AoPf
p1825
aV14ZFbk83UBjgogLAB6TSPYVLNFcnoCc5US
p1826
aV17ppz9TUFkU1LH1qbYBA4gFB93mSnHERgA
p1827
aV1FrgVLPzijfyQFgCt8Ged6uMk5T6WThZpV
p1828
aV14R5sam6bhmZwtAyWztQQhVCKyFUwSmZUw
p1829
aV12rAYkpicmSCjKd2kwmfrjt6CaRr9FMhnC
p1830
aV1CowMDxqXSMWH1Wt8gMBTvJxAnTUdgtJAx
p1831
aV12gpPY1wPBeK4zt4ozUzL5PxSSxpdQ7cTz
p1832
aV1Y9eXT6YbVuba3TpU8mQtdezEJkbsce18
p1833
aV1QJqgHdjrjmWLNzTPKGeiAX6ELiAAV7WAa
p1834
aV16U57zU7PPzb4bXKnamDxfCZuXryXn1sqc
p1835
aV1GwpJWjW6BtUjFqfdMv4qy5xJP1shNZyhj
p1836
aV1KZwYgepysryj3wh2rUhtmj5LkVaojpTUr
p1837
aV14LqkSMxPTn7PYbbsDfsw6V4DSGuuu45mG
p1838
aV13N5ATpPknBqPACJJXfCcw6LHwDK3FgYnF
p1839
aV17jAVjXxmtgr8CxwcZyCwQeQhmRCK2Pw9d
p1840
aV12ZzzkmQbiiudtfJYKBgZeCse2ih1yYGFH
p1841
aV12nh7dshXfhuRe43K5tHL9pGEcDutwFxoX
p1842
aV17ZVYiS9aQAp8hj9i7UFPw4wKLHsY1dVxX
p1843
aV17zE9v3JJXrr6hp3HWH9d9x5KpZDMryVNA
p1844
aV1AZ4jeKiqcNx7JiPWRJDxDWsG6UppNLZJ5
p1845
aV1Jsy6omxSYikWJvUS8YZUNxPyxnaFjCvFG
p1846
aV1ELg2XG4oY5WsfaXZ9hf1f1PHt3HYmiRgD
p1847
aV1Pwthh2XbRHv54waBTFzswsGtBp7n7uCtf
p1848
aV1BAgmC9UiECKi1srg19BbMgKVpmNhrFDwB
p1849
aV1NWPJFCahpfGoKHrgm4dAbjFDD5NbLqBDH
p1850
aV1CsM1vXJ6kkQbQ61NJdQkUFfW3t2cBX624
p1851
aV16y8r5oVNX8eNjtJZ3nDwLyioBpgXGFRQP
p1852
aV1KtSxc8Vz6Y3UCJ8XDUDMjZqN8FaKkM6LE
p1853
aV1KVwUszkSsVc1EfA7v9qM4jyWucDCcLxXN
p1854
aV15KAzsVJ2VN3uWmd3SCwQsaB5FQA9rffYP
p1855
aV1JWgCQNxX5Ji6UJ8oKLXgyNaeqi55uLzbd
p1856
aV13LD2MbkzJti6AYpRthw765GeTx3gstvEq
p1857
aV1DMjF11UhV8yVjnqXpm5bW61BTDbrsQxih
p1858
aV18gHvEnPLdeAL7RGESpHeFx41THR5mipH3
p1859
aV13ajs6VX8nrP4u4TNN5Lj8SAXBmEAPK3b7
p1860
aV17K3w8LjSAgyDoApLSJxxNbQtaQx2rnwTP
p1861
aV1FwtYiTGFz8LL1b7aRnNA7hJ8VxMZHY72c
p1862
aV1Auu5G7PnAkbMdKCSbe4sRwqka3LUUaRgx
p1863
aV12ChMqpbdve4o6knjiRfM5xk3H6kiGXEsN
p1864
aV1NG1SKZKMPQF87cd7dwo7q3X6eM5u8FhLR
p1865
aV1FwAUTvPQmXgJTnfwk9hx3JBKQpUaddzRr
p1866
aV1DhVciLsB1VA5qZ1JvL5HH3Zhi2W5VmfNo
p1867
aV15CGnsibR8ehCJ4W27aUdB4YUupAgyKbQB
p1868
aV142TJjmC2ZRvgtKsezfEJa2Y5JQfRVfSt2
p1869
aV1HCMoiq4RM2p9mSnpBsyqrqAB6Yrex4doL
p1870
aV1CDbS1L37aXBLt4FrKgjxWUS7DYqgVMAzJ
p1871
aV1KcxWv3SW2G7GdQSaRnS6Ro8drApX3BbFd
p1872
aV171prsedirhbSPvzQEXrJxATC6Y6e3FVPX
p1873
aV1n7FLHn9ewfbdfAmeNcABiqWkYsYSgzoy
p1874
aV1JLB2VwKn99QEnehWFdD7verynw8AhTf6G
p1875
aV1DbRQhP8xvrHYFgMCKpBwmWikwo5PRpwma
p1876
aV1K3MCKeY6ALdCYVto7MuC2MeorSQFdVDst
p1877
aV15aRY7cRsNbLTTpdVLxZGoXSQajQDLEwYo
p1878
aV1BiBfjqKMBZo3XzjR2ttfZ6nZo1a9LaEvR
p1879
aV1MHdV17KUs9ZWesi1Pa5dTh961uGHtdZFc
p1880
aV17Ttb2hyn1N6H7if1aMqo8JpKtFJZM2kBv
p1881
aV12nTCHrvVrt856RBnboUaKimwZFkAG7pzt
p1882
aV1JwzGdEcp4AN5wfjMMZ45snJTYFdnJnx4r
p1883
aV1NLk78AoXBxHhgxwXWYP4RPEhKdXGKy57v
p1884
aV1Ah4u1zBcE6knuKzTKGyw1Z9Uoo5A3tHtX
p1885
aV16JozC4PjDmFXNG5oJRHwqAjfxU3qmd37S
p1886
aV161kJbZP9n8VJjzZVpVMcqwd1UQkyeSuHk
p1887
aV1N6Kzyk6jR9De6pwMGrgFdAnKCC9xT8au1
p1888
aV1FKiot2k15FaWQHGPkQv7s8UATRuHxF8s6
p1889
aV19j4pBVcJUNM7fq45u9m1ZdhYG23ECqzu8
p1890
aV1FD1XBFYMdcDFGiqcFJas2ggB8Xof55Hvt
p1891
aV1DEmyWB11ZHza5x7RtrgRCwNMRcH5vdhnQ
p1892
aV1Go5FEG4tfXEpPquGHDRu5GxkK5Mpph3yY
p1893
aV1CHnGfDwUUsrmB1XBa1Zqv4fDfY9ozERSC
p1894
aV1KNefqHM7FKp74iiiqpta41p6VxHjs94jG
p1895
aV1BKCPYHqvi9JCMTX4tPGJ6pYnbJ9HVpeBm
p1896
aV1EDHPG2WvK1nbkyV3LJ74RKF3z8GiRQbbb
p1897
aV1EdqVHu3CoYuUiUmB5Dn2dFpSnPAS6Xhum
p1898
aV1LoNDnVTYFqubfLwiquwCT3LVfBchERrPX
p1899
aV1uCVb9K8XVu5QwnoFby64dpNX1YCPcDPh
p1900
aV13dZ3PCxspnburKHeGZX6eXGpXFaKyEpDK
p1901
aV1KTT4bcVfvfzFADcdk4Poji6oyXx6879oS
p1902
aV1Ej66vkJPdwwXbchqR536DxAStTj88teso
p1903
aV128ht4L9f58NdJKxBUk44LuHRsaAEdZFpg
p1904
aV1NqPHJH6EYw7CvWfNNkwwr9fjE9UzZL5xh
p1905
aV115jdeU9oxutQWSVUbwMpk3b4LcFQhDcaZ
p1906
aV1AX1yrQSyyFq4HENsFbfxLcWxQZPVrTRB3
p1907
aV1mXKuzm9JutFAAhtHmrphQjCLY1Rjwr8J
p1908
aV1JYcL6djqTH5ieAiuFqjSEo7nntAEP2JSy
p1909
aV1L3UYEMdc7HBC81DsvXociF3K1H7ygC2fw
p1910
aV1Efsqd8bbDuaonhVQsYoSaip2oRBxT8L7y
p1911
aV1GE6ttJZHNPKhPY53X9CSux5X9QWvJG7eH
p1912
aV1JhPFrX747dHSxrWNWVZ99zNnAyKSNXLTL
p1913
aV1EkAdiuCsK2K9aJXekvWZ3MDSRbmVxhnKG
p1914
aV12DHEQco9KHPUwBLKLCQszSDbkjWyFsq7a
p1915
aV18YrTBdf9W8LgcicJRWX4HpurobehSFZL1
p1916
aV1BDRG92JqC9LbPgx9fNyozqyw47i36UnFX
p1917
aV1ASDXkJBzy4EDedSeLekVfvGucq41rNG8A
p1918
aV1Bmn3vxf3SNQm8ybaTC5ep5ASCM8UW2vnv
p1919
aV1KGuGGKaquJ995gwmPbAKx2DQx5RWF1YRi
p1920
aV1BkVzCWyXZuCcd22zqH472P2g3PnjeKzQ
p1921
aV12wUit6Q829X9QcL4ztDbJRdfpKFUbfxwE
p1922
aV1EmdZZxj8YBsWaQ6Dx86mowDvverSicSpy
p1923
aV1GxRDVhvBxgxehHEc4HTCk6MPhjrRu8U4s
p1924
aV1LbYzCLrfHrkG7cayjBQrVhcEzYheoGNeg
p1925
aV14WUxzxRrxT6b6QUZHhbec71j9P68aiYNc
p1926
aV19cUzgyufNKXq5fLj12qGMQTr6u7b4o73f
p1927
aV15Ppm9jr7UfqjDbDaXZCh3LEUhkXX4HoTp
p1928
aV1PDePjerdyTMzgtMu9CuPN39ncZzuw4FjG
p1929
aV1BnFpeRoXsca8qrJpqKbxyzdnCHmtSBLsi
p1930
aV1Ks7DWWeZisUANm9PjAA2ZUTrr2d4QMNzX
p1931
aV1Ef8W6Cc7ciHtGoRUiDZ2GjLPmCB3BbaW7
p1932
aV1Lj5ysJgxHJGMEJqMvuYrtJAnXuzK1H4UV
p1933
aV1N3hp4pXbZwPrLNweGNeX8vMmeZ1UpoCSc
p1934
aV16MtgVL6VR1AF4ydi5NRz5u5JmsNUkpp5Y
p1935
aV1AQScT4ecovBrGko3eaD2ULXxs9XPKTwPB
p1936
aV1AQPAbrdqFQ8M5L2miwAF8wABp7bRGGYn9
p1937
aV12MeP8CAfjKExVqyHUF5SbuAyhpPpjrQWK
p1938
aV12mTR3tw4jZWfVvcyqP5cBsN5BT7vCEcHj
p1939
aV1MjrzEij6FVoYtX3zUbK77YeQVjm3Pax56
p1940
aV1Pmi31eo6wAh8wAxq44qSFmEjG48h61FYS
p1941
aV1DxcaXoGpUF7J4fBZShtSLHbTdFMKLbbwy
p1942
aV1AS4J1H2gt1Y8HKieREk4bFocHyTuJHWUd
p1943
aV1KiVAFMW6m9fEzHUfqU4RujuvhrdcYm3XG
p1944
aV1FP2F8pF8k2W2jep9JPgUoziZ21ZwHt7uV
p1945
aV1Fcj2pAkU9oK9B4Eekb13qSF2SokAwVWPU
p1946
aV1CTDwv1tbqAoWPVKDTppzMPNwLDw7WtvDb
p1947
aV1KfTDdQf5YgaB5FKn56DfAqqPr7NP1t3b2
p1948
aV1J1CRiYwbohvXk7tRjzjjMcbj72iBbGZd
p1949
aV12kzS4tvawJBdana7wCrLiMnBc53EbBsar
p1950
aV1PVAVLv23ZTgC3bSyYeTewFwfCRB9UGuMN
p1951
aV14tT2Ws8pvhz74PJWrorka6EPMwoqyh5PT
p1952
aV19C98SumzadaJAMsivWT21nnGxTJESvndM
p1953
aV1EVib7q2yy7rjtuFcV4Har4BDASXy2sua2
p1954
aV1E9A3dvpgmdr89PHfSR8jXmB83vg3sfVxo
p1955
aV1PqTYaRyPUxLDKuCJgFjt6inrApmxUk26M
p1956
aV1EHDXwHZvTXRbGjLCLyVZxiQrnnQAnJbdP
p1957
aV14KoUyB8NHr4Ti5YXBsVccMP2STAdFWK9B
p1958
aV12imY9J8mg7ZNNBHMCQcyA1GPEjKk7aBt3
p1959
aV1CUayABeiK5p79je6dYo9SVU8oU76M9HCN
p1960
aV1D6aUyiDbDrzwCs99tEN7AHnDwRCN5M7jQ
p1961
aV12emFaQ1i7r7hvsDsH9kZZKT8BbzhTFp73
p1962
aV1KNyqx5x42V76xGMaxKGea6T7qsqLYHUTx
p1963
aV1NUFAM3se8hr8ifLg9ejdZNVSejkiTQRLs
p1964
aV1AZt2wUVsrt1EdcVrvz2qYzosJ9wme2FVr
p1965
aV1CrsixRBX6kp5CFgqrEH2D9brEPa1ZFx5Z
p1966
aV16oTDkStS7qdhw1uc9nV67yRVKa6kxzEPG
p1967
aV1EUfiAqYh4xZM9xZQMjUfPSB4TUCiGgcjd
p1968
aV1FJ571eVhZLa7t2dU88ABG1p2kCyRFkPSi
p1969
aV1Q4hnUeEaNojqvpGPNjJZvNZbYakqNEArU
p1970
aV1K9yijNBmhb8PAJdK6QbCrHQV9HoQnnXuu
p1971
aV1BbeZy24F3WKh569Yhy6mdLjsWzctD1uTE
p1972
aV1Q6fhUToEQAH1j3vViutHH6k5iqK8t8c3P
p1973
aV1M2e8iYLDs8H9D1AT7rm3pYPaahyKoFasQ
p1974
aV1CxJy3jbDPSQM1P9L7NDH556uGpjgroZxA
p1975
aV14eAvSBVQmE68dKPfb4As7CssrERHh9hyh
p1976
aV136iwm83C36z6VHKpxNFYCizz1zxwEgb8C
p1977
aV1Fa8BsrZBeVap4LWrYBUvBjZfVy2vyvBnv
p1978
aV1ASfCcZZZffEk1bo13ctjJ3YSuV4J5vac7
p1979
aV175BPKNEGbjganoqrNo928wAqJM9ZNR3ac
p1980
aV1FmXZYvzuehjhkr6JsB62WUnpUj9mNpfHd
p1981
aV16VDiWbMtWCdvoAXRHcRpywE9d2LDp6HZN
p1982
aV1Kw2cFe2F2RGwwEZKHZoWRGUn394JM1f7w
p1983
aV175mbesKZkaGsUdAiwKXs85N82U45fCji2
p1984
aV18Lwg95yBMJk2ghU59wjtgcbpyc6H18pBR
p1985
aV13pMEnaeFaRmR9jNYms7Yq8JM6P9H3qnqa
p1986
aV13Wbyfmoe25iHiAnoS23WfJHANAGyJapR5
p1987
aV1PSWP2GhUHLrMoMBy3xXYh4AF6EDqWZxTv
p1988
aV14RDboS754jc82ky6qfCCwQbLrRy4csYuo
p1989
aV1EWxWjcTTifej8brB6oHkQMk4Wcs3pLijF
p1990
aV1BsuQ8tmWrSWTF9vT1aiTPhS2yUaQGXiuQ
p1991
aV1MLM16z9oZsp5rryB1tqsCUr12euaiu7Vp
p1992
aV1DL6Hd6khbKejhm5zeuruad3cgp7xKkWH5
p1993
aV15u4ayuqUo8babfKXkXcx5J62iDvA58c6N
p1994
aV1NDPrdft9bkfEbupBaRoHLzvqiLx82sdTD
p1995
aV18rqAwjDTE9ra5UGfxHKe9MZcpXkicSg8z
p1996
aV1K1PaHdk8eARpKVMXntHyjnq4GQehk76hH
p1997
aV1CokRb1nsAK8TGDe93YhdXcz7wHjLRsDVN
p1998
aV1FuPbYEFXft9JLot4M8Vs4uSM6up6zSVs5
p1999
aV1JYwGYHqVTtRLNMDPbYnYUE9SHcxArHD8d
p2000
aV1FmEQQV7WP4h5nqfNsV8yyfmrRiKb8CWt3
p2001
aV1BXeCrkTkdKkmBheWFHncTyNEGENTdhpSY
p2002
aV1Q2VAT5erUnNFCDx77hnBpwvU8W7tmSGCr
p2003
aV1Q6EeYRiAoNUELTJGn4v5HFJx2hFYhW2SD
p2004
aV12KpgVAuz7KHPL94BUBakf1TK9CKoUe8CM
p2005
aV1LwAJLJcwvXnqGjZ7hbfGAaxdHJRmumMCs
p2006
aV1PsHz3ePhZQoFVyq13ZsLLZ418nDTf9xkD
p2007
aV1KZ9548sFZcabRNFUmzrrssMmCxH36NW6W
p2008
aV13ko8wQyPuKH99Hju9tqWSbcsiVVTeefXd
p2009
aV1L3cdMpjMhZYLP41uv1YtNXDLYgcR5Rabf
p2010
aV1FZxhATxXxiXkJVa2Kywpsz8cQskzkDGJu
p2011
aV18c2oLr1NQCUrwV1doXR9toWpPKQm1Kgmx
p2012
aV18N21ptseyMt4xapNjz68Vn3MYjybNpBbo
p2013
aV1MPWjdiUKBAY3xAH7XcTx5JcsBXayaNfSS
p2014
aV12rnoyVk2br27e5W53MiSFRMb45Vrx4UG5
p2015
aV1HLMzAqaBjrs7GVo81uV74HXCrYSQvoLMg
p2016
aV1KzEftEf1cFqQ5fvquwC3mvjiNjDsUqPb8
p2017
aV19dC5FmSdFyvLEAnQFNkxbptHQJEWkR4YU
p2018
aV1AvNQxGwss6fLVEexTGtcuJ4D9g4ghjJX
p2019
aV1MTapaZ5hqY8dtC53TZ58ncPeiwm3k4BbQ
p2020
aV14rraNS7DkPR2HzeJLSdqUHAEBPFUdLuWA
p2021
aV18B2jSLoypf1zwZU6qxJFnKa9HER5kNXDr
p2022
aV1G2UjKUAVFsjRS3kEfjeQSxjPRVaZuuCnN
p2023
aV1K55AegrjzG7FUWU6kn9Kfd6UBRhLxzrs4
p2024
aV1MBJghUZBhQC8Yx7XoYa3hn5vvTfM4R2dW
p2025
aV1sMVVRQiGmbTVeZaPyajV66k3bXENhMtg
p2026
aV1PD6MnXFjkQivchWjotopKcQzW4Xm3fH4N
p2027
aV12UtG2MGQh2b5K3PDvA1jQy9n3WZvGh2J5
p2028
aV1Ji7Pzuk5f7xQckSkuAYsmM8ogcTgnbxeM
p2029
aV1FozWdzinmtRnTU9BVYhHuASz5QyvtuYyr
p2030
aV162g3rQWLAB8mZqn89kQrLrFvi9yGcZvM1
p2031
aV193murcmqshufw7mtnJ43ZFvi1guxhfohM
p2032
aV14CXtUqsEhoNJPxGRiq6VLN6xhak5pTaut
p2033
aV1DpHxKzAzkg4UANj8SvQMnKt6CdkXd45Dj
p2034
aV195eXAcA7j8gnChTQDcebVn9N1ZgYDipGt
p2035
aV1Cb9sDf2ei5E8r5cjBx56zmvLMyzfT5Wyn
p2036
aV1X4YQSsbQgx4YAbN3TVr2TwTEshAZp549
p2037
aV14uMBN3it9iAoQajM2tm3CHughcCiSYbwM
p2038
aV1Jr9ZLnRCvYis9LKMVewPbLoYm5FMZUnNz
p2039
aV178CGVYJomGbgpkxX5MofkuzHRTgkupp7i
p2040
aV16C8zKbTnDYKvXjFu4ecP7hFRBr9HUswg1
p2041
aV18V2BLhyUgA9ZhLZGZFHXgqij1qJo4u97g
p2042
aV1M7xbnGZiTpPsL1ck3BfiA8ABadqKb46gu
p2043
aV17YgzBfDKb4TLfr9fg8myR5XKuD7HjyufF
p2044
aV1Ew59w8Qh5q8MNraahZ94XGw6vYa66Jy7k
p2045
aV1E4gdDD5VLcRKifhFoNYcGCFKfvs8dGLdU
p2046
aV1GpnKuN9WzVvVVAbXhRBX62x1XQAdcTbhC
p2047
aV1FYSu8ciLznB4MEovKJPndM212ctkSvdNe
p2048
aV1JnRgJhL2AoNCqnhhEWr6dXz6USVr7rsau
p2049
aV1HxXWcJ8nuLU64B3aoJPQEeH87mRVNhXs2
p2050
aV1LcbKNrwYSfqFuqPv34YqDMdsdMiTMJsRu
p2051
aV1JV2WRBwUKCJY5jdv5JDzuoDe9HmYjrN5B
p2052
aV15ijj7u6rBhoRMUBJApVpGsFiADPVxMBW2
p2053
aV1LbBTsEDS3vVj3AeqDTmML8ukYFXibM4K8
p2054
aV1CdvTW2GQNYX2MeZ6yWsHyiGS2EhvgxEd6
p2055
aV1CcnYqfFv37ZLdexFZP968Ef6GvVSSsGQC
p2056
aV1DZF9xDFvNRWSRP45wyK1GsyBJgCNhZoj
p2057
aV1JxmZzvfvmErzkrGwwXh6GLMSSPTAJcM9d
p2058
aV1PEvBJhqRefe6Gm5dKN4QxLeAzNnKo8wdf
p2059
aV14w5WEcVL5Z45ayMZvvxUSoHBDPZv8KyMw
p2060
aV1GLgoUtShEbw4tYWEpjp2H3RCU4ieN46ri
p2061
aV1DDJx2YMCj7dasrmEqN4SgyUhHbrChHCDb
p2062
aV1PPqDvR34WYiB5A753yJ9hJi2Z6TjsHniq
p2063
aV1HxwPVvBk7zfiqDrkjhssfp3j66KViMzg7
p2064
aV158RbafWGsPoz9w9id4x5rmz8B9wJCvtGy
p2065
aV1PwFRufEdhHJiBAfstGRuLEnnQnJLNv32y
p2066
aV1FKkidsrec6NSdXLV2w2MXVzFBzy99Bsjc
p2067
aV1PLBF19hK6HRb7diuXgVPqnPATEkpwy7tW
p2068
aV18Apoh8iKfCpv3W2ECf2YVTiMKR2Hnm42Q
p2069
aV1CL34ozD5Vqsa9qSqbp9zMYnH3rnDEanRw
p2070
aV15vTavjDuNqv95xcNSgnz8F3yHKT9s64D9
p2071
aV1CJbbenVJt3J11qdbN971T3ymwisdrYG6Y
p2072
aV1KqgyrgiMwVfaHm6RC6ck4i7owiQGviLYX
p2073
aV1E9N51HUgBZv8xQqeguMb25pjqPDzmNm8Z
p2074
aV16C6GKBtGpbswSprZAPbRohGZgWhcTe8s8
p2075
aV147wYrXMcvZijgWrkuNkQLRtQdKRxvmUd9
p2076
aV1JYdM1KMBYE3AhX8iqEQNnXMm64KcMRJ3Q
p2077
aV1642x85g9ptv1qDEBqgtVoAMtHtyXkHY4s
p2078
aV1EquPKJQqhLZo1gH25WuRkghcSNQASYCNZ
p2079
aV1J5cUby441ZFWmhHRHdfdwgHCCdpptrexi
p2080
aV1FpBabNhqYVfdMiow145i1NQUC5yhzZzBT
p2081
aV1PUnZZpr9PzFrwntNNsU2unPq67XwoodZh
p2082
aV15VVs3sFPf7Gvgb1nYTkfGtLNQ4NqC4LPD
p2083
aV1FVkmcu9HWtZpKnDKY8358Xj63LS3m14Fh
p2084
aV14BTNPKL5tv2UVmmTGiGtBcF8GjkarNSnk
p2085
aV1AF3nXPaTdfynbat1qxcHWKazZ8fc2WNTw
p2086
aV12bnEqfePLwACgo6S2Pr279Fjigpd5qDtm
p2087
aV1KQDGNkC15HXF94ZJTT6bdbQQpZthtnQNK
p2088
aV1Pv3j5fK35fJuyWFCGGr1NixwVdgUqGdjd
p2089
aV1JGsndTbmBHYmhfLWGdc6YZdMzz4PFTRba
p2090
aV13hawcDU8oFCH2PshHXEdsbKSy8j52e8JW
p2091
aV1H1sNakWFkKxEVGx4VuMRJ96ce7vDVy7TR
p2092
aV1zJaRJomgbtFcL3fhjeJBAsSzugvRHVAJ
p2093
aV18Gr7dZh37nq6w4QBe1sPEK1G1KKpatBU2
p2094
aV1Lkge1WyETGQPS9oSRZ9eL7Bu2AJMp1tDE
p2095
aV17G7mB26BDvbUmiTvuXmSq6HoZffGzPrEa
p2096
aV1GERVuCrhEdCzz2f6TKeg9YFPDDg6PDfg1
p2097
aV1QD1YaEaRsdzVhcg8Ph5zFbun93RZtfKbK
p2098
aV1FnbGsBvxbVo8g73TXW4ghfavgMpTpwwcv
p2099
aV13iqMQXJvpD15MfyoJnYGn9mTqY1oJb3tX
p2100
aV16uyXoqYVfJdeAQ6himz76tsNwaYPHCnwt
p2101
aV1EoPBtnCMQ8ivTKZxyQ1QcW1dt7yDLuKiE
p2102
aV19zBQwdbtEBVSU1jtYq2DZcSSSLJRHckML
p2103
aV1GpyJGLtYJhwfdtxaLQZLE3MJm7hNAf9qv
p2104
aV1MVi6gE7546sv7uGDTby4agYYGbn7Nvtrg
p2105
aV1LDpLRk4d1ZJQDSgvkfoFCm1nh1DcDhSTr
p2106
aV12NDjkifXuud7xmXaqH6kVyhrghKoLgCdk
p2107
aV19za7Yo9pY1EnTuMroWhiRMu6M834mfjY6
p2108
aV1MLUxvRcqmV8zyXJva9hw7xvs7sM8p9GLC
p2109
aV1Jrq3a4hbsU8mHsof9KRZi1PiRbSoRs5ii
p2110
aV16YfLmkiGG8hyUHc3gT1AzydN7S4VgnNjV
p2111
aV1BGkv9B8QSSZb1EZiMfsepeUdry2wJtSZ3
p2112
aV14JK65jrrsRSSy2fAi7gmEsi6tWJ4huhZ8
p2113
aV1PM7SSwN5AEj2KN3WwvmJKNNy54N5ogJa6
p2114
aV13en3w9YdPb8UqxSugSb84RJRP1tuyfqy1
p2115
aV1LbKHDwQpPRt6G6uqFW8oEwfiwZTgCLYhX
p2116
aV16dw2Qt4RS1XzpKchczjqBD714h97KcB5M
p2117
aV14jJoNB4XfWPSXS86SgN4dbgrmNtk8BJiZ
p2118
aV1NcCXs9jpTmovJB4kkYASRFxXVHe4ghxZQ
p2119
aV1sSJ8t7jffk8FB5VnGbopydAhQWxU3dEq
p2120
aV1PGK99CkxiHLfE4ES9n3EuxhjAPLttho3z
p2121
aV1QKyB9Wp3RMiKHZQMccCmdUs6BR28roM8w
p2122
aV1DQiBC3vCSsg75UycpXiUmfytMne9rJx3J
p2123
aV1xKGYuYPtpr8SAtLJzh4myjafNGsTkmDB
p2124
aV1JQUGZhCCHEsFyVZtgF5wF7twEwJWWYz6y
p2125
aV1FYdLfPmWmHHwtLzu6ymMRLCq5LVqKSdgz
p2126
aV1DHXPgqQrA7354b6cARFZmxEdRXfQXh1hD
p2127
aV1BoeEeNHMaLw4vdjTnnSyZofgsd7uYcSuX
p2128
aV1MUNaLPYuwM1oUTPN6TxvcPiMNg3G7fWgK
p2129
aV1DzuTQthpTEZt7JR58BVoSGJXyK5GQF17E
p2130
aV1RjJPSdwqAJdF9QnfgdVCvSbMarYUJv2A
p2131
aV137qKZheX4Hwy6t7siNu1NMtSWSxXq5hdM
p2132
aV16dvLPLVvCrMhgzWsiJf4g6cH6bG5XSAq6
p2133
aV1GNgQ8EYx8coNxqxUvisV1d2sKCXYm21DT
p2134
aV1Q9EqrYxDqK3GaFdSpJQfTL8GzhZmyYp9L
p2135
aV1Duz7M81rwtBkNaSUC86b7W8W4t2yN6qvB
p2136
aV12UXDev7WeRBsv3uGU9QD9t3axFJs7E6Tt
p2137
aV1DmjQgUTAaDdjLpjFuh5V7dcHK1XBRq5dH
p2138
aV1DTXheG2qSbGU6gK6zH4nfxJgr7md2EBzH
p2139
aV1FM3dfdWgj1RsT7wzYQXijQmVRm4xbPqk3
p2140
aV1KRY6iUYN3rvHJJ3hY1mNjrreGyd9KAbR
p2141
aV1BNnHXsdjj1QLHcbdsQxPnajSyY9dbv5Tb
p2142
aV1PibDBmQfzuY2qq9hG2rXHgTzjqPCXc6bq
p2143
aV13VUcyVwgai89GGnFU4bbQeeQpERpkyiHN
p2144
aV1NZuyFj7XWEQXp4kLn6Rj1744MaMrwrusR
p2145
aV138PXB2AfiBDiTJQBYWK8Xx2tPcYjA5svL
p2146
aV1Azj7QchkQSZYv8Q53C833kmjxHthJTNfC
p2147
aV14ZAPGBJks7jmr78UDMUM4R47B1e1pQiNH
p2148
aV1LNhydphhesBvHQUBrU3ssW1X3gxqTJ3q9
p2149
aV1ESb6tXMXMKJvRwpu1GCyjSFkuEwMELjnp
p2150
aV16R6SHmLGNhMLdMKacchrwjdXWQu7KK32x
p2151
aV1H7x48dtUYNgSQNCsPtvPaXd2prbMEqgnY
p2152
aV1DBBwe7DTrT3M8ECwjwmUoYNaYszynyeB4
p2153
aV1gG1L3Qy2Qcf3FM7euUpidRZReuq8vaS7
p2154
aV1HzFExVue7Au9F4iCdamvBgam5BomncRVW
p2155
aV1K3GE4sdZ78gnJKmHdxmTWjLSowzyL56Kt
p2156
aV1FveYi2HMk6WsAsNXsihRD1qeH3qEHwWpd
p2157
aV1FqmRjBNKBCgUZ1AzrHcRy2vshYcYMPHfE
p2158
aV15zNgVoeZo6ry9isKW7BRSjgPEq6Tfqg7M
p2159
aV1CFDazmEL5EMVya9dFMSMFpGbFYGg6Ctr3
p2160
aV17vLdkBTf9nhYfkG1GGgeDmGTtT4wLcKQe
p2161
aV1GKcwFFMRfZonyhMguD8XrTytjvRHh6nV1
p2162
aV131pMfc8rMTmnCcgg5qWCGUDt9vAPAWhWi
p2163
aV1KmJNxDA9ptfj7RPCBSk8PxuumSreY2dza
p2164
aV1JbRtYuXq9LCemXRg77vaZzBYcNb6WcgEX
p2165
aV1LLTC6jCme5nYJpuqupvVhEj6TBVRw6oQr
p2166
aV1K1xkjapTTg1esN69NpHXGR6r17FhRC8iy
p2167
aV1HoiCiLEUJr329pFHvkbKEEWJWq6bpM7LM
p2168
aV19cobuWZPn91iiVAdoAV8vyUbUcKfhni6W
p2169
aV1GpXRMHVE4VHAvXykuBdfBJWdXhY7ahMu9
p2170
aV1bVaL8zebXYsBnfMsDTr1QFrYH9ySn9rg
p2171
aV1JKnqqHboadZioR27XvyrgosvNZb6kDznW
p2172
aV1Dgb2ScnJQLGRfnjhNezJ9uYGbJUPyp2RK
p2173
aV1AkXQdmrSNZHL8rYYxtqbhrgx6WU6iFZgM
p2174
aV17UjmznE69aGLJhVsE6aAnEnxvDiRPKLwE
p2175
aV1JASEjq7McRACxFfCt9or8vDMEoYm8uFo
p2176
aV15JSrLcSCsCin1CxvNV8YXCZogs2AuGzZf
p2177
aV16hT9Q5qysYfXipmBbFhaKMoeuXMDGTVM4
p2178
aV1D7AAiJTahqvm1ePbATm4QMx9Twy4osDLc
p2179
aV1J7Evqz6tZaCjXJpv3f59tmED5zaZaaw1D
p2180
aV1NguMenfHf5V7g8HcPe76L4oMwppxQ5y8v
p2181
aV1Dk8VArERHf9e2so7nBVvbStY9Agjgas5j
p2182
aV19czKAFqKfjGWYXvc1Hn45FgFVEwzHyJkP
p2183
aV15xLB7Rj2T8PjCPgsCvUPuNMhD6JcsL2vd
p2184
aV1AYKzNpJKTM4Lm62G1KtfusJuYD5ZoYv97
p2185
aV12oUPdjRC2EDkXxeTeLYbxreoWysNv7VYZ
p2186
aV1Gtfy379b2hgp6VFc6WkBcAn2KD1yLPkig
p2187
aV13V7uK65oEfyRUsbMKfvbArv2GPJHGbECo
p2188
aV1MP8pKKVAQWEvCgFHD8isWgpknH3KxdHPQ
p2189
aV1FxDkY3Nmpfthtpn4uv8Kea5U8LAYYKs7U
p2190
aV13gzCbAkvbEiDHheeC54EeAUNYEJNc8y3D
p2191
aV1HfrB1i7vVC3Cj1gn2MbjqQsmJqkDpHv7j
p2192
aV1ESSR5xtKNG91yvAU2z23dGH2QvnrdeaJw
p2193
aV1Mfo32kGT4EZU4Jghr23FZUFmdXmKP4Aor
p2194
aV12yH7t7dM7QqZTJmJwSTEGr75HmDgWvrwi
p2195
aV16eAbQK77rRPgSz4UxEG6hrR3sKfZCMABy
p2196
aV1HbRWro7vTEmEMCBgrdFeFj1ATGkaWiBSa
p2197
aV16XYWdkidEGWveaVeC6AnQ9iurPQVipUMq
p2198
aV1CuUMZXijbuukVKNdDTXc2u7DYNKByQNaD
p2199
aV1J3wvAmzURy8Q45fhGLie6zyxyccVYqJKC
p2200
aV17uTMXH25BNgteduaMhfaFBZdPiN8yxzUS
p2201
aV1KhCooLRpNj13ccoYRKNkRHbAVDRtZK3cc
p2202
aV16UJquq9WkJNoqUggSqi9iCFs9P3DyniVX
p2203
aV13E5KK7X5A8tnVj6ciuqwZ5diPf5bA3qgx
p2204
aV132LCty3nYPVDkkmqnCtCsswtMVXfSyikM
p2205
aV1BwGrm6uMLnqDrrPuLC7RFXhb2bMRmAFgh
p2206
aV1HdxodiYeRBj6voL6ixtgXxrmAWuwQVQcv
p2207
aV1GkgbXVi2XZvsyq6o9mJJhe8P2QArwrgW3
p2208
aV1Ly2EtkwSyrUAqyhoCQSixMwcgznUrq2PQ
p2209
aV19eGYVnSHzBaxgxjXVLwakLU61MVL7tjKx
p2210
aV16qU7evJmsovtXv1LndA2SBy2YkohzxLsz
p2211
aV1BbCP1myc62BsA37v398kuBRERxEdqQVJn
p2212
aV1DUyUURY43Kk5bD6ijYW4UXp4TYCaemWdu
p2213
aV141Dc6mVTpHJPKvreziNJT6iD44WJ8amaW
p2214
aV1FiUFqpHtbL1swMrWCHb9zUFmDEqnDU116
p2215
aV1PSGbFfHEmyZnzJVz8kaw5gSChM9irwJdL
p2216
aV1NXXQJ7V57aEXrg9d7hZ4LxvMJebkdc6BX
p2217
aV1DnrjdaYm5wkiWRc9rY4dvnYUUpw3eb1BQ
p2218
aV1352HEQQgB5NELDBEMxsx1hinoN7AuFPLf
p2219
aV1B5DTyb5SxetnYPkcdsBU9r2kDhLCNY162
p2220
aV1FEmrjo8JjnwtfGNjAPKt43jnuixiKY8g5
p2221
aV1Acz7ay3Gy7LTv7ybqpQ5JmaGcS1PDELCK
p2222
aV1QKr8frcMgdEY1Y9D3yoVs9DkimnFAasLu
p2223
aV1AZwkYtRAMGcNFcc17BPLSqHyQRpXQoFzp
p2224
aV13MpT4dcvuKN9TxS6SUmUgXaznEZQ7QkNy
p2225
aV1CTrCeU6UERuHqDX9aKXSHjE3WuqqzT7uw
p2226
aV1H4UMkDpQF5DQFfngpQYZVxd62rThf6Pqy
p2227
aV114fvwJWduQ6QWqVdtSjUoH5iYHoLwGHw7
p2228
aV19Q8uwdDQ1ZRvteDM5AnmUGpvqKxdBoNCL
p2229
aV1Ky1vkU2cHozL12fkjMc935dkFJmgkXEb
p2230
aV1Gb5pK6AuPLatuTK1NzAA42DSmpXPnXPJv
p2231
aV1FwjxWhu9fGTVq4HpzikPFsQybY2Y71aox
p2232
aV16ERSqDFBzPYwatrHVuV6ejY6LeVU5Mvg1
p2233
aV13udAnVkXkrUJYyyx1QZtwc5KNYp4nkXKZ
p2234
aV1JEp331DnXnwjazcSs74NYCgSn2sAGeWWW
p2235
aV15xQ5J8QFVc1mpyRm3kkYf9Q1rpvdUYgvj
p2236
aV14epKN52TPx7JBTxhD2jCaP8XFsLSJUQcF
p2237
aV1PnLSKEx8ZKXJ7sAVridDmc44z8dMrMGZj
p2238
aV17GerYn4daSuYuojgB6GSSBTMyELLXTkLX
p2239
aV1Ngr2dvgZx1QC7QH9twZ5pZ6NgCy3QCKFN
p2240
aV1CYkCYaujV444nqt9JGNPupUGLuoXuDSr8
p2241
aV1FcbiqsHMjVZFSQTYSeUgZYxYuZvv9W3dp
p2242
aV184yjiJpGSdPYv7j9NjyKuUe6574Xjcrjo
p2243
aV19i36ZM4EZJ6pkTeJ911HC5qFioVXJ33pZ
p2244
aV1ELFNCy2KcL8SvwcG932Kv8WQwrH3FkwCr
p2245
aV1MNnamyeudKYbP4HQA4QPuqCTaR1GqfZnk
p2246
aV1AA5Sk46X4WrCdRdsuN5PNHc2GMLLfMpYT
p2247
aV1M1HaPJpe93SmYVRzSofFh817EJMfS2SVv
p2248
aV1HRbp7NA6uW7RimU4xYMoqAqupCj6RNP8W
p2249
aV1AXnAn5UVqTe43FUKo8H19eFqTagVkKFJ
p2250
aV1EWzNEBsqowkLqnDz8qhKuCtLFfsXBZwon
p2251
aV15N6bJhYbRKNxgwdt2U7FQCSgT31jzuewo
p2252
aV1HNCi4PWTX1dtv4JYVE2xvhcu9LALu2u4F
p2253
aV18Vqky2exMwr6v33c5ooaReUDLbDTivZUo
p2254
aV1QG84h67DSo9utKyP46LHfKxErGeuBTQZ5
p2255
aV1EJNG7Ko3PhKPLsjsK2cX3uFm56M6FmMy8
p2256
aV18JDqeeA8hTiYWK7V8SuAScgYyPbz76pV4
p2257
aV1NFUs6T5HrxT2eJEFX7xVE19nZ16u25kP6
p2258
aV1KeDDgDuDQrwqUHT61S19JrCwa8k7acae6
p2259
aV13LY8v9Z2af2bw7ka5TVRpTKSyuHjUQ6c6
p2260
aV1KGfTon9yXcgNikgP2C1Kizk9wB2N1AtpY
p2261
aV1JbN82WJnwb3ZJZWuPSsE2BZbkm6yjLkuf
p2262
aV17srbt1JNR4bjAHSPURddXtbdyozbHmDmk
p2263
aV19tdvi8T72fbu5QV6nR8hKovUvKMtSs5tV
p2264
aV19PFehrJuwARmryw3mWe4Tp4xtLaR88bov
p2265
aV1BmTu6JSdTzr39ztNTbjEteCAe78q4rHL4
p2266
aV1MsQTvsRHAarahR371q9VEZCbh4NErTCAW
p2267
aV1DTViNmKb8HtGgnhwMdTM3PCix9c7VgP4E
p2268
aV1NgaRyePMF4ZoCfgi17hVKRAHkDU6fPcag
p2269
aV1AgNbZ1kWkKF6zVsNGpUmnFqjcCuxuH6yz
p2270
aV15xdUn8mTk9EhArVa94XEWGDTdWPY4Sxmf
p2271
aV13mMWsQ4D9EjM6xNLURNqqn3ktfj4mSdUs
p2272
aV153HSxe4F437v64E3bLgTKYN9YZBRodxTD
p2273
aV1Py9hL6ckuCDNoMqyH738vG1v8dEAV9hhE
p2274
aV1DqkYBeruPhtPbCZq2rBf4j1suq73BjvKs
p2275
aV17x1vhKqStGkPBy3qiuX5rUtXb8rAQvChG
p2276
aV13uTpBPJjWeKUvMtEMKBdtGTwAbzKGgbXw
p2277
aV1QDLsBGn7fdtR983vrdPvFHAnGbo81SXkw
p2278
aV1AzjogAoeFVRxNNnfihPHsaRq2sLSdNKAu
p2279
aV18ziL9VWacUUthiipbLKNfri8zmjenPhQr
p2280
aV1ENbW3EnhiKbMa1Gn2KjJBgEXJ9VnFdkbp
p2281
aV1NSXXauj71DaKiG9P4CwMEpwn4Rgn67rrw
p2282
aV1QAki7fUDNGW2eycEeB6yW68YcvuTcJhcd
p2283
aV1P3jGA9VubFudCDswizYMgeVSgsm7FNNZN
p2284
aV18ywMTpnjKGvxb7rTXoyLqDcTUwPpbj5Li
p2285
aV1C2AfAw3fCg6auNCMRNk2S1D3CpnVQHYbL
p2286
aV1F4ZAsSifoMQEEevXyRFVu3fa8JzCmbAox
p2287
aV1D96vYivLKVgVygwfthWpjrCuNiuTvqvcH
p2288
aV1EQdUNYT34M7eNCcS7SknhSi3E8YFyDovi
p2289
aV1NUXewemsqyuaNiKCaCsZ5FKwbGvhAaqkT
p2290
aV1HUhQ8EadLRBUBSjuzn5xUL3gF9yTttVXV
p2291
aV14YjnZ9dvq5Mb6BuUfP5yeQNSFXXUTfAuB
p2292
aV115qi6feJRAqCu9HmsmrZDZozHTCUnMs9g
p2293
aV13LHw9dszhCSw9G7xTz1pbemA1Bq5EaZQM
p2294
aV1F9KSqxguUyK5tsGV2spD6fwEu1roK9XZH
p2295
aV1GTV1HdvdFvqnTuvqED2YC4SUq4xRVrvhC
p2296
aV191tVuNw3MYsLVHD5XTERq8nPHJTJjmXsd
p2297
aV1H6idqfFueUMbWVBCWJUXtweeHKWdis9Df
p2298
aV1GLYeCEFgBQnatnwjoJh1PFZmgFWYYXt9i
p2299
aV1Bq6FzAMQna6uBGYJZZU8TKMM7bRQcknrK
p2300
aV1BuRuyqteAP68j2aRswRm8XWGnP3aNhA6w
p2301
aV12PYAzrAdai9B39N5hLvToR2vHiahoZ583
p2302
aV12AkWCgHvooD5dkoxPbXG2eQEsb9FG4VtL
p2303
aV17JSKHhcEPUeiaT5hWHrsvfFpsUNfyT69G
p2304
aV12iyqtEwoaDXV4W3WczQP6PiXnKibHNJmM
p2305
aV15qhmZiT2w1L4A7Brun47csTz3EqzghUFn
p2306
aV1ENxJPs6ZqvAix9EAf3HXucvsyrj641snh
p2307
aV19v4HoqoAp269pbnc71SzrtbidwbqUNwJg
p2308
aV12BmDiFYHMFVfnwjZooTPch2MLQWXVMCvJ
p2309
aV1Dqmk5Sce1aHu6UzqD1Pq4a2Hhvc6HijU1
p2310
aV15wFkgRsqqDDNAG19U8pgLLX7zADBDF3AR
p2311
aV14ZFeoL1mG7k41EcJTEAtQLgWAqYx4gqtH
p2312
aV1MrhvEUyQnQW2NtYgXAK7dZ6HDbRJ7rGeW
p2313
aV1AbdmTM29xURsEFtARSTdZo4EuLE1sbd3Q
p2314
aV18h3tBcV117ThnmYbXpDMsViEwkg2EYRGr
p2315
aV14pXvQmBZLsFBhKGunCUhevph2pRULrkE9
p2316
aV112E3cnCTfVz2NGbR3JVq4ycejQJL79417
p2317
aV15AZ9bFEZoK4F1pc5MUFtJBBoVGs1E1HoZ
p2318
aV1HnXvgAZgT7st2mRQBoFnppUgKid8t8pWa
p2319
aV1Jnazw1ddWVHPKdx6V6gg6QcHgoxURjab7
p2320
aV1Cd43E9qbCBJmpuroDD1jr68iP1bBxDgxu
p2321
aV1LpEoRyDqcPXyuVYtWxsCfgqQa2E29h52T
p2322
aV13K4AEFNGoyyLYS5qwjuqUQiosATZF7AXS
p2323
aV1DX3fomJGgaCZgu496WagWnpkSttVpRRqP
p2324
aV1PrpeZqmfD8SWQa2St8QN4RoD15yYni3zj
p2325
aV18c1MjPbmqdHWBFNnJM1CiYt5DnEwCYriN
p2326
aV1PQDnrhZK4Hx31SknJScoZsTvPfgkpSVFp
p2327
aV196yihZKweg94CJoFcQNyXUvp8ofSpDXwa
p2328
aV1MPSoeA6Ba7XMBuFVpnYezdhFBV9oi6xrp
p2329
aV18gvTSWjE17WtwH8vJbARG2ZXVcJygnwes
p2330
aV18xD5TLqRH4kG32pcBkZ1zbgEjcZUJdSCU
p2331
aV1PcQeqF1SSvEoqgfzmJ7Sj1bDG6CUN8wgd
p2332
aV183M1zx2gJUypS1NVz3eUQqqbx4xzD1aHu
p2333
aV1QG3kGkrzbVbAh6bwKQ8jGw3SjYwPUZemB
p2334
aV1NdVR5mve2wTm3RbBMEEPi1dDi5EtHx39c
p2335
aV1KPM4X3GFGM2tMcZBwTTowUKeZoauWrpP7
p2336
aV1BY8FPgKKQ3entje5vi1ceiQZwDbPP5nvq
p2337
aV1JxA3dTBibJdtVzVwH5JD8UoBMAn9TgHt3
p2338
aV1KYf36V8U2Qt3MSWZWCu8ZuUK6bwKLUCaR
p2339
aV1LKALtZVKUSP7AJ6BkyjFJ1QBEBu2HRfKE
p2340
aV1JHHVnzUiWqPmhxnihQ2WapThWchxyv4Th
p2341
aV1JzSbkCo3caqVoJLQPTX1iRszoic2N4Q8v
p2342
aV15jkXwSbcPiDV9Wge5b5XCuu4fLTjygNkQ
p2343
aV1Ate1uXv4so51GRY3AyPzQmXciRJs6GebZ
p2344
aV1ACDPoP4aaxtyQVXhs5jdTL75BTPG2AZXq
p2345
aV1FGZvJ2HkiJrCmofYGaTwHLRqZJ8U26ccn
p2346
aV1bJmpVM3ZGjiMmRW4okdSKc9BDrePZDrr
p2347
aV1CpdDYMcMqKcujm47ynVfGfDWVyHVyLSdF
p2348
aV1KnPZTLsDVyDtaCYw8ajSpGguWWunCeYnK
p2349
aV1DszayEh4bcW5Xw1tffnQbEeBXJZf41a9e
p2350
aV12V4hJ3aSEzDGb7nrV2cNqZGwG97LZ82YJ
p2351
aV1JbRJFBE1zF4qLarY6FPiy4tZdUV7q2AZm
p2352
aV1Esbyhw2dEMy83UhB9tfLqKoRNcECiLs7d
p2353
aV1Dc4xzmNDtoj8pwXgM6T7vX8uZaXQrdJU1
p2354
aV1MHHytb3Zd7WiMxC9D1EPdHouYwoVGFFn5
p2355
aV13QfKmiMFrUsXVKxN8W1hvCTcTp6NTAsaw
p2356
aV1JoSZtPtAngdG8U3ydj7JP9LBw5oRUYWNu
p2357
aV1GNRTDf7enWqi41E9H5jN2b2hYR6xhoBjq
p2358
aV19545x2GU1ZqrfuHmzJw46isUBvTzPbBHt
p2359
aV1BUJkL5wJor5TUixs4fSwTEBB4VPoXLC34
p2360
aV1PGfppqEzoQo8JWyrUrsZxmrUz8uydCprW
p2361
aV17YNb3XrxAx8kLq2VjdxcHo8pLjk3QXMM9
p2362
aV15Rd6PBWJeTetefopTWPTxgJvBaVhp5CUf
p2363
aV1NgiuGQPg74zx5TGZJkgBwNvFzHMGsnAHE
p2364
aV1JgWYsMVj33CDUBz8HMWGPNtw2nUGy1FTn
p2365
aV1BVP6weFULgXytf7umjuUZFf2qruwTXT8R
p2366
aV1Bdmq6dhztFMdfCkusUdFspku7pZMd8J66
p2367
aV1E74v3NyJfditJgfjeBCqTKndRC9d59y61
p2368
aV1A2E9iBAwUtEF7W4HXtdWYZiERAba6grFE
p2369
aV1BDtuLFvenfrqb6edigkRMSiYiXjbXrp8r
p2370
aV1JBafKJSRXLS4vC5xURWM8hLXhhN5o3Pkm
p2371
aV1GY3VqnZkgoE5gYKuEfWmXX5FiQGgwibUT
p2372
aV15SqRiJsFH75oRgmcne8PUa3gm2f19eB2A
p2373
aV1GjCNvcwrWb1aSmYhAxxBB82yE8rMkTTHg
p2374
aV1PGm8t6C76tdokjuaVCZPj4yTh3KbBKms6
p2375
aV17baNHdQi6Ao5r2THozyF3WGMqZjAE1PXG
p2376
aV1KeecZrLZUQfRBqBm9CdeWQ2QMJWWnVCM
p2377
aV1FapVh8DjGudJ8yDgLUrb764skH5Vwfv6X
p2378
aV1NiUCJoCBagnFPRnHiV78sTie4YVDFXzsv
p2379
aV1KrQy78GLFoJC5kmVE6McfdCgYcebnohN1
p2380
aV1GRUvBV1ypKE4eRVSqMUokT7MeNLmMvnse
p2381
aV1LFB1XgUB1UajSpHWwyt1ZGHFDPXWEhMj
p2382
aV1Cja3ywEcLJjCdxZtoWFCNHjPZnxcY4Hfs
p2383
aV1PvG1EKG1cG4EGprkvRgVDcB5Pt2FGaUkC
p2384
aV18mRoQZTC9m4CGtSUeLmDjDJXLJEv3ryVu
p2385
aV185NCKzXWi3N67n7tEnd4gJZmZxcD2fbmC
p2386
aV1PbsaesZqyMuNTRm3TwtDM3tn6PNbjdkYB
p2387
aV1941buU9JhGMLEigBwW6PYjjg5f49zmoy8
p2388
aV16A5gs9B8y2bzPXjtWix6jfshVxwKcFN1E
p2389
aV1BP33SzLgEtvKv3DPWmzXEPZ9MqVLbRgtg
p2390
aV18a7Djrzn8F61AoX7wFyXZ4HNqkYuA1sjo
p2391
aV19GnjE9qb58okRBw4GpLT7o9pHWjxFoqAT
p2392
aV12LF8d7pijPipvK1kRVMrQPHcgwu5NQAX6
p2393
aV17y6NJnq4iouC7UxYW8Yp92Db7TCu61DLo
p2394
aV1LhozCvHbM7Rsbabh65MTuGKzrLy1xY9g9
p2395
aV1fVG93vCHQqoj5cJVnmtw2vB6T5WziuKP
p2396
aV1ARifaed6sHEmJmX8yedNVy6cjknGVoB1V
p2397
aV1KXZMZHojvUSu6c9FP5GNe4JfkTuLMZiAe
p2398
aV19kWVZ44X8e3w7G5jB41RYhmzvWaHgkuNv
p2399
aV1P1AcLHHDJjRDyGZ42vMcJV1im8z8E1pAP
p2400
aV1KCMeULXu1B4feoFYPoZc34JtRFe4XMCqR
p2401
aV1BVWJT9i6LcKpy2RJdA9v5QdnxD6duW6bP
p2402
aV1AkNqXYvc13y2JMYnCbW2aQBFT3je7YgiN
p2403
aV1PttpYBgPyjuYTBACEhgB1Utd97vn9jHbd
p2404
aV15DmkLXUG8aPJxKjSvBGwd7532AJYVFmoJ
p2405
aV1Gp14LYtSaX69p7kcZhtC6zMoVbuVVXsZm
p2406
aV1FjBMaSo9XBTPFAu2LBuYRbjrV7pojdPUp
p2407
aV1DhXgYEvNmjnovHP67khekhQ5Huf3KNPxn
p2408
aV13G5uEDkP2FeKafcLgrgMqn4YrUgu3pV8d
p2409
aV17M9PTsX5phX1jWhQ8AqqNqdBXcmVSZxif
p2410
aV1HRVijWQGTQLmbENRcEL6gnUNvUcR3BGTx
p2411
aV1Cy3tMWtfbRchLTCqY32CpMtSZJ461jCvE
p2412
aV13ZPc56aZbRwJbshzoG1s6zpka7nWewqtt
p2413
aV1CeTbQ1EPm3JoYXgvhtN24oiE5CNL8EpY8
p2414
aV1HqhqayZEPpkPaFXKy5WevPot54E3VAcap
p2415
aV14nYdojUdSbCTmcpxdBTKFkFC2JffApwR7
p2416
aV1GC8w9PN2qG5Tywe4HCmfvVks52oRfyCaS
p2417
aV19S8nBRaKfszKwZpWvNgwZ5S8tkpGb2e1P
p2418
aV1DQqDKqZDDXu8Tpu69FummxwDjReFpeXzi
p2419
aV1EoBN4tGiMr8jHuahPUZxWkY2ZDoQn9CmV
p2420
aV1MGfottDkzpn2ShZP9MERdVPAydScwbzPu
p2421
aV1FuW1nz89VG1SFawn3owcTUhdJwXs5yLt
p2422
aV1MkVgaHz8QNytSrYRAd6dDU4iv3Zf5YvYN
p2423
aV1JKdHykbxHUoAk8jeb11sNhqBbdvqp9aZ
p2424
aV1DTSeFQcgwPFbHoh5BaChd3iotT4YVJcu5
p2425
aV13groNgKEpUFqxf17kjkRmXBhAHrXLCyQ3
p2426
aV1L98ikXgTZWJxXTgZqbUirMpBvCSR1kKM7
p2427
aV14buL3EqPMehFSsDwzq2XZhHWqMjDN5ig2
p2428
aV17PtwY6Nj694SnXycYpe4xtgoSPchd6A2B
p2429
aV1PyfTdSB2o2ucKxM7BQ94NbsdjU2GGBcVD
p2430
aV1HRZoHYNbxnVRZrXUsAFTKiHnZpKTFUpg3
p2431
aV1EgbXbDkjKyh3ssbDdx5iqvx2mtopSWPTA
p2432
aV1CDU7kGjdno9bvLJYNHDvfu6gFDRKtW33D
p2433
aV1BVhy3vK7nhsEhMEcb7jgT6Cd6ZZCiFAKE
p2434
aV16cWbidpPk4WP7Tcpx3iYK2dNAJjGPGACR
p2435
aV1EJXFvmW27oRCxo9tFytEM4mzWabtQrC3n
p2436
aV1MUWvMAGZUQNeJd3vFu7FjCWUZuWzTSDue
p2437
aV1ER8qeBSvLjhnWB5wcZgWH1c9csAKNHYQ7
p2438
aV1QL7aY4HGPns25tk85s7fcd1CwLyjRsc5u
p2439
aV1Mok3ymdJUXDxj3GFHJZzdgL8cUkgg68GC
p2440
aV1EFswC3mBLcpz5GZ51AkQUMbBpxbdFWHrF
p2441
aV1KQ5DuRGihXeBvJCw1jeAuqhGsZ4uEtTob
p2442
aV1AprxSvsDfH5PGJ8n5NBUW7ApDoyeytfjv
p2443
aV16K7aatTkQP5gwjYptUJzyUqQXqNUKkSwV
p2444
aV1FYsUwKqbRut3kXAmHjWaDkasxgFAdD1CG
p2445
aV18NmofP3M2zVG9gMFpj6wcmJrmWiSLyM5x
p2446
aV1NVEieQeyFjhFzRoQZ5qLESHJo6q7f5Qvo
p2447
aV1H4gj58hzF7nE9qLkSfNw9uB9KKFANfG33
p2448
aV1GHjMpmVjbtrhrNCTaHTvY5zbVFDeDLyND
p2449
aV1A4fF6FBweiM5TgqgFeeNgZ7UFa9t2Swix
p2450
aV1GiMvqyeRWSZ62es4KHwN1EohBVyTYat3w
p2451
aV149k565SSzSsaizT6VaguUCvqcn9yAupCc
p2452
aV1MW5PYCPpQnnoAW9PuJkkhof94Gg5Cqzx9
p2453
aV14u79sWfdJxnn9XYh8XqF7WwGajh8EhFhP
p2454
aV1DhE4emdezVBz97ThtUhAmHpsTrsNa9WXF
p2455
aV182d4EvgsPhAK3sFWPtM9VUTcKZLSPRrBx
p2456
aV1BQ8oTKp7BVon7QEFWj1Y4D4DmhDCoEDZW
p2457
aV1BkBoJWRSMeziXapX5m8ZnT49ohDxjoup9
p2458
aV1L9geK7tJRuRwGChHeJhywRSrcypqVJEv5
p2459
aV1BaPCgBPy4Uc4GHAon3q54QX89N3rFhcjn
p2460
aV13NWbxVVHhsip1ihP1P8spnCTrvk8AK9cs
p2461
aV1Ls6KkbhtqwTz7g72V65RTRZeSZEwtCrEX
p2462
aV18XfmGhZHt2Ym7zcTKCwYKzqh3z48X3Rts
p2463
aV16sp2KBVWCduoscGyeUtzshHEU4sphd3cQ
p2464
aV1PaDQwsc11f166CF3WFogWDCFSv5JAZ1Pe
p2465
aV1Nng19qodkujFVW6kiiqYhhCZT2qZGGTED
p2466
aV175Ufh9HsRERqJ9qnaPewzDTTtxfYnSSq4
p2467
aV12UcA2yc8iJ1oMV3kvgzJmVSVCxs3LQVaa
p2468
aV1LYDhJB1Jer3eGZXRv9w7873go2wKRjEK6
p2469
aV1HfYybtWgqgk6knFpnxmRQQYVnDct6gr7F
p2470
aV1Hf8CWCziYeha85sBGz3eFeiB2YLdJ5sEz
p2471
aV1GR4jfMZ6ewrCJeYvCbvweZBz2AeBhdf4e
p2472
aV1H24MiUQxAAo67N9PXyKfQvaHTX1jBJDYg
p2473
aV1CGmFSCAyMXi72heGX6kCtf2EZGwiFvVrv
p2474
aV17FnGf11uDcSVC3WdE33NTBHGhqGciAqXG
p2475
aV1Ft4QsG1VntsTxAQQwZMhuzmRDKqZyNTrp
p2476
aV1L6CZzqJkd98JrHWGAvAggnJumfijgQ8eY
p2477
aV1LTfQUMRJtaJLVfYwcm8F4f6GdMgN7H4CX
p2478
aV16qoLMonvv1q7Tyi4mZmREnyqHPbDVJmrg
p2479
aV185gWykpQEHHzzKFoZNwRurYJvcZUHv4ky
p2480
aV17XaghEXPsGXN4NN9SccDC6caSUaDBXtfY
p2481
aV1JVV9HmXQj6jHQwT1AAd9PPrTU8sRTAA9q
p2482
aV1JsBpwZJQTqoicTRRHbTiEuk82o8Qwo71q
p2483
aV18waAmDAo4uc4HAqmz5J2gHU55EwseR49H
p2484
aV1EYEUdPN8HRMquKWRRMBSv5g8DEPDLwsLC
p2485
aV1K32UwHS76WfEmZntd8whbEVUrnRQtFexb
p2486
aV1Ack1kRzXK4TU71FAsVsFbfo6fRHYcNywT
p2487
aV1PmLWy1R13VKcy6HpjQe16A5CsevL3QjUR
p2488
aV1AHk6Uzyq5sdxt5VgpbE9zzfjDfu5tyhBK
p2489
aV1KEiGhDJWp9dMyHBjfr51qunFXs1PDd4kU
p2490
aV15VKDP3SnVjQNTgYdAU9ZFoJYZxV8FiniN
p2491
aV1NwWymbP5oYYSs9vHzS492XbJaf4b2jh1Y
p2492
aV1FpcnbpaAEHeLhtR6vxqg2pqNZV5VUnTBg
p2493
aV1NaY9gGVBhZzRiKkW1cpBBGBBFwZRGxwSM
p2494
aV1NmgVrrF7iczDV6916Kkg5fBF38H6Q677Y
p2495
aV17YVn5mAp5cdjnzRoKVGHUxC3yUFnqxHfp
p2496
aV1EJHr8hi2xnG2WdFYwPpPvyYPfXcEV5wd4
p2497
aV1NURE5TtW5XMLSXQnWP7EANWkGjoeFUvTn
p2498
aV16nFVv1rnMLfAnLLHRBuQeWfPzt2vAgDgK
p2499
aV17tzARvkr2CDHYBERHYCeKG16qWo22x4gZ
p2500
aV15HwR8WpajrgJTTDQvecJGxZ37MJXMcNao
p2501
aV19fwznLkN3pQegiyWP3TyqCkxHY6vZJgWL
p2502
aV1CsC2CuMvMCKdMtrjdrursYPArCbXxRfh2
p2503
aV1Cg9ELvCBnqMy25LX3j4Nfxmf6UnHv8Vr8
p2504
aV1Jdx9P1C6DDLsRta8TbW9y4NM824s5H7f4
p2505
aV196SnJEcu1EVo3FsXDmoTnNWFaWtzbKyQk
p2506
aV1HacjePBs4FXzbd6GvP8s24JfYzS6VL73h
p2507
aV13ikdRQXjFkfeSf49sNAJAbo3NALR53hoQ
p2508
aV1LJrzWcKhzfAS2DNZLB9fD5wZKFvL1M1sR
p2509
aV1Ap6KuW5ZcUhPo23twT6iSMuCqHL1LJ8Po
p2510
aV1HjU7fEv3HQDoaVonvSpKpHxVgyqHBUXsk
p2511
aV1EujgcBvbz2hxs1z5mm3HJMPds9ZPQrnAh
p2512
aV1JCM7byVVNYaA6iURtGKYbUnQG2F7CWhMc
p2513
aV1K768awm4R6cAd2E4pE8LAF8QBBqg4zf25
p2514
aV1DHqVtCt5Uq2jt9NKF1DU5UfgDXVH5ddMx
p2515
aV1An5oZZE9noxzHxkGpSBLeN9dwrcqTtt3N
p2516
aV1Cey6kkb51WHpMj43xyi4zNaJ8RBWekV5q
p2517
aV1McFBEaRMZNwKWawe9tK1pnYHNCWTe1Gyk
p2518
aV1BLHggd34x5Nm7ZUmLu8ZjnseZih94nyTM
p2519
aV1N9hYqku9EVG46j54xD3oAiPx5meLWX8oP
p2520
aV16NpdsNN5GHgNAKBhn5U97uwzqD5QsMRVD
p2521
aV1Djjur92MWZUD9q1xj5iYzxrQUa1DtGYoh
p2522
aV129Vp1MxTmMEg4nMYmaRY3eC9JS2j8hd6g
p2523
aV16TjCg5EKD425UJwHk9wG6TqvbX84s92P4
p2524
aV1H4BqXhmvyjPGvohnk5AnFjdXxBkt7CwBT
p2525
aV1y72WmcdRuDFRnKwcNJxiVGNbshVNNNL3
p2526
aV1NZwT2nZcKhjSo4xChVpAoCrJkYTQ2TBzK
p2527
aV1Db7q9WvDap9bYiSUsN5MTww9j7hu7bgk
p2528
aV1CAheZ7NrMMKLy4obAesMHbF2tGgGbiFVM
p2529
aV17CnqRq1V11XhkXXw8isNUYG5FhioDfJ8g
p2530
aV1DyVo4itCMwjae1E6kaDJcbr7xED8AM3cv
p2531
aV1BceeXst8Wvc13Smoqp7U1gyezuuH2ia7T
p2532
aV1PAv92Q9w7zV5ECDJQ7XBnvA33gzMLfL7G
p2533
aV1LPEFeKAZxuWA2njYt3jD61s7SgYfWE8iz
p2534
aV1AfkjQ9Z1ki6yZRSDb1TBpHA26MUFQ9McG
p2535
aV15PEeydpj3up7RSyyqBxD1UWTzE4xHh2cx
p2536
aV1LpneCZyDGtTQ6ckuPNsBtubTaLA9Jb62F
p2537
aV1jXUf4uHa2rEKp4AGypYqLbMUe9GYwYtx
p2538
aV1FCiMa4U1pz3nxx3GBz9k4dhzPWE9x6zX1
p2539
aV16hLTCJaNyPmEsXByRUkUybAibp8oATLeK
p2540
aV1LYeRzR8K5CKD65rL5oUAYXtnRSmqNyBd3
p2541
aV1AYgEzUXfoLqGAqnm8KPbjbYoeRdXrfCTq
p2542
aV1LTRfK6JPSba5yAo35Kg53RifVJhVYhJYg
p2543
aV1LijHFdamA6aBiAZkF9NcNQD7bbBxMMp7E
p2544
aV1JvMU5iuojDjT4F4EQNCAXBxXNdr4G8Q7f
p2545
aV1MtVtJ1XytyaMo6yX9qWHTe1K4ytd3GmH
p2546
aV1G8DiM2hPAvt6f9tWfVCmLT25ZNss1yvUq
p2547
aV1NRDT6kM7NLXJU5uFa4guWzXVUp4xSebE
p2548
aV1BAvCeMrieEnWSpBHk3uvDt78CfnDWN6zu
p2549
aV1BaM5EDc4DZhEUxzxcZuK13qEjZganqqsU
p2550
aV1AKcjXg9pwFmWYVeWtcUo4UR6eH5MNqZyk
p2551
aV17zLNqAxctp8CEeyGHicuJ4uenXj5oASZD
p2552
aV14qRxDQUMYR6wAMU2U28FgPiZ2g8egiNMm
p2553
aV1Q2PFErFNgLNzpP4uEZQbkV63iBxRaoeos
p2554
aV186yZg9XZ3bdtbM3nFTAwRkEJjoDyq4uwr
p2555
aV13TFufEgSK4qMizjM2eb2hvvwQZpGKAqyo
p2556
aV1E1hPrwy36w4s6JaSWbHrS4KhZPb63eKoS
p2557
aV1NxS1jpkZkmgmGmhLH4HzrzV4gJmzSzAz
p2558
aV1J44NVEsaSnHobcwCqUagUv5htD7UC6Pmk
p2559
aV18wCfiFvnDbvtCDeXD61koykYV9wcTz2fm
p2560
aV1BmUwK24hGLJxYZd4fMj2LbGzR7wd1fRaT
p2561
aV15FriDGsNPbdf2u2sVSWHHk8UGuVBbZgWw
p2562
aV16FTZC5dnAAXeuF6oV41xyNQhLCSB8k5t2
p2563
aV1PPLpYktpSLMpxoHDxYMTyPGUMY1mcGr7Y
p2564
aV1GPNYbofV68oBWUNqkvPXLG9dmbRDWTWAD
p2565
aV13JmF8mXpzQrf8LPQwrjJkwQY59nP3eMvm
p2566
aV1Dnhwr4Dd7FWe4DhTNwiX61hPK1Ky5JUpZ
p2567
aV1MR4MMZM8DNw18y6mvxCPJ7GULTLQRgWDd
p2568
aV1BHuebkLKZJ3EkPxHAsqiYjXRFYuNLFvr1
p2569
aV1CQ7Be3DtMWqwQNMJSWv78Fjtfm2LK34uW
p2570
aV1Cy4xBF1u6SSJb9MiYGcLhe3HirdRa9Dv5
p2571
aV1CaDZPAUEjmLVUszyxaZ9krnrftppgjjJ3
p2572
aV1DQoUkd9i9rABexFBxzeAyhxEtXhM58MXJ
p2573
aV17P3tje9LQQAtdLagT8tn2cozPg1B6eHWU
p2574
aV1HEHbjUiiPv8UBbbPQvqtk6ujcuNYG2QpX
p2575
aV14JoCY5NZy2nUwZ7kprZkFJgm36DVxWqYC
p2576
aV1Hi9bqM8J2yfMqQQdabBcMe4PzcHKDszLm
p2577
aV12zqMMKdgsE8JqeRBoPrYPL42Efk75kwkw
p2578
aV12zcHsLbR53gCKPeV7r3rX3JZBjyB5j9wG
p2579
aV1KAXy5gmZAcLP8T3z4i9TZamnJRDCFuKpr
p2580
aV13hgbcfRXpYkkq3n7wPpvSemLMBXU6WrCj
p2581
aV16YiD7JeKwtkR16jj2utSYCykU46km6uf7
p2582
aV1AWcoGBQxepbHaWFLBR1HXzXAy9tLtzpdJ
p2583
aV1JWtvqbyKSjx7jeSrCaaWUTaBCCtCPomgU
p2584
aV15irLKbrCkFCAkjaSZznXhsSSjJkL1d4Bn
p2585
aV1Pxd1t7wGVhY4Mbhw2Tgdpx6NAP3NMbqP1
p2586
aV1E3NRnkG9NwWugmowrP71ghsZWfzupUqeR
p2587
aV19SVkmdn75znAiGW23qpgLnEf2KM6WHCVt
p2588
aV1A98BfayeTU6EbfjgP4KCzDYGBsrihaFng
p2589
aV1LLKjJYdfxWeHPq3Q5SbLvUdUAwXV3fagd
p2590
aV12VgyXNTKdwUp3YLacEdUHZFefyVq3EfJU
p2591
aV1HoJDC2CzC97UdkVUctMyzTVx7pmjUv9dz
p2592
aV1N6dEyfdmYC3eqQgb6gMDCrUwMe21u3Qww
p2593
aV1M4a9JfrGDwVDFqMrUrEgBpN1ucFhKH5gy
p2594
aV1eKTdyrd3KhtJenSzbsaHjVqTVPfyjSTx
p2595
aV1NNQ9QqGMqqLJqMFV4u5rqHJMh696gvv5Y
p2596
aV1P4EiEukXNkSLW6DfJZB7LEvfAXtvWRTpw
p2597
aV1ErybAdiZf4H28AWE3gFTjcYBPcJ3EnzpC
p2598
aV1KEBsY2nzhHR5FsQfaiToVTnSZFm5ngqas
p2599
aV1LZ2naRY285n2uibpd4szFc1CnxRFi8Vaj
p2600
aV1JdLMJfE818AZy8Y8U6Bqxss1wDjtRLoBa
p2601
aV1QF6MPu31q31EJHTLC1Wr1xp3Er7H8qfhn
p2602
aV1BtyBu1RDSKiZNgxZWg3LFcm9due83cJMT
p2603
aV1GodZafbhmxoK4z8hZSKMaYyrEUdkEGXb8
p2604
aV1EotbJc2kadsP4VLaLH2hD3SSug5KE5sgg
p2605
aV15aarbCjsSs41Zs8i3ncc8nnNPT4UC4E1Z
p2606
aV1FtBe8qWTcCE2UtSY6146RK4AnVczCP6Aw
p2607
aV1GwkadcEHAkFkdHRGWyT9bVMUdEW8eZsMt
p2608
aV1HDeFVvU76cufTfuaDDWykQPAxCLZzRc5R
p2609
aV1APNvpVjQMcBV42WgW2emN9Z7B2u5S6kDy
p2610
aV1KHsHB75rY4Fgt2VDB8HPnP4gMmsk3XoUZ
p2611
aV1M5ZQg3QgP9p7WXWCcDmLRdRnbd6i2r4NK
p2612
aV1Q31xCk1f51q6rNEBhV19bA4AAfbr2XNAZ
p2613
aV1NVXC9mVYazVBZG4vrqvvoEkVri5yz2rr9
p2614
aV1GYgdtEkWc4VSqYk57PDCw4NiQuy158yUg
p2615
aV18FTAuffz7eqGarJdL38EzThYUFJeamRVR
p2616
aV1NbCjyXu8iVqAQom2pWtaFfwkkMji5CMXV
p2617
aV1bztLoRTzU68xCCjp4yL1VuH4ACB9TLYe
p2618
aV1KoG4XA3tXjaDZq4Na6zzHwMtPDNPYBG2t
p2619
aV16MoinBKDf5DoFLhPnYE8oXDEH9HaKZ5uk
p2620
aV1GVmDwS3zCqNEkMK7UG4tQ7itKxakMu6BC
p2621
aV196pKHD93NThq85vB9LEb8B3mWsG3xgbdd
p2622
aV1PfaZzGuYDgKtZ29K8kTptEiyvr2DffW9J
p2623
aV1Cnsg13LNE2VcWG9C4u236s2zUbtTrQoCb
p2624
aV1GY8Um364byaiBpfxX4H14Mr8HbGRPw7D5
p2625
aV161wLZMPj7XuZgovNY3useCqoX8VJN2UJV
p2626
aV147mwLW4VGC52bR6Ff1tnCDA6gph2pSt11
p2627
aV1y29HVfxtJkk832E8wQmPUiDPF484aP6u
p2628
aV1Gs4Cf1rLegwhFRxk4NLmB1m7kj3htMoFo
p2629
aV149DGUh8kzWNpCVqnNJHvNLcuyVL5ic4Kh
p2630
aV1M93oZF3nUksoDPXymWuGkjSXsCKbfjFaC
p2631
aV1GXqFz6AkBWBoZyjFKJ3BKwt9TixmzqL9V
p2632
aV172XBtZRXheBqAaFVWtLpDGEEoW3vMh6WV
p2633
aV14oJTHn1XQCiQ52Cid7TJwfhqVvrCh5yme
p2634
aV18SeBza8Tc8zSUxNeLzKBsfRjm4kbvo96W
p2635
aV1AKRcbFMs3nZqYUKY72ws364JCbEh1PkMN
p2636
aV14ej7FqQqGuvW5yRDRUZNcE2eC1Vpyu3Sq
p2637
aV1GqR1WcgjLPTmudfJpJvij8Lc5y4H2qKhA
p2638
aV18Exi1dnQmucWCpNhe9pGjbNZ9q8bhLyv9
p2639
aV1QGE7ogCyYahkfGPwHHsHX673JqmGuXe5P
p2640
aV1s9QqeiiBJtnU3TEYifXMRqSggt3ey5aw
p2641
aV13Z7TpEMc2QUuqq1FRowKQhYcw5naVfQ3x
p2642
aV18KsPJyWDQ6axRYqaftk9XB8ae558Eyb8c
p2643
aV12q4Y1mgamnBRg8nWEKUe6PmXQAwFUpbrh
p2644
aV16nEfYtonncQ2zk2GixdUBqKp43RN5Kmk5
p2645
aV1DpgAA3GQKVeRFGRBSB9wXxsBV7YXsDkpV
p2646
aV15t8WAgpHwitJDcd6aMgwLyfNGrs1qpFrZ
p2647
aV1MVTFkYgJSfvE5FTJp7wE3D8ZhXh7gCrbY
p2648
aV1LHfyUkof4RFbQ7ZHJ8tDkP1fWYXKA7CEq
p2649
aV1Dk9RYYpjoKoapTee7tBuaBKBA7vPAaCPz
p2650
aV1bSJH5rALYzm6dp3QpPWwB9SNia2mimxM
p2651
aV19tDw2HR2ERFvmqmtJqFznbx6h1UyNVk6a
p2652
aV1LpohKo9ew6EkPGW1p1pijsvn4ZSaActf8
p2653
aV1F33byLRJywrFTekvdxcf3bsXbA3kXZX2
p2654
aV14raLYT9qLnV32ZJqTm3FRfGtqpibF9EJ1
p2655
aV1HRKuuDAqYxhCrDuUDR9XPRfDtasQPMnRL
p2656
aV1PHzmc3xSTX8sm82qmUURWTYEpwQp93nhE
p2657
aV1Hs9xWrifSTqoX2j3psHb2iW72NZzWnqpc
p2658
aV1EPF89XsqHx6cg995uQToCFuvoyB8Fushy
p2659
aV17KNqcq5Uti6LQ5bDHmmx1dWwphRDSfSzp
p2660
aV1CwWrEpPda76vMJaJBbWsCrnZTMB79oeks
p2661
aV17nhXQUpw4uU5RhDhvvDVBRBZMxJpo2wDV
p2662
aV1EjkVzuP6m4VMLmCMvrBC5DFPkpSoUe1xZ
p2663
aV1DT2tFccLzXF4rDhoHTxuwctSW6gzSTAhq
p2664
aV1AY9oT6HLXqQf1njgvWyCUCVxzJ3Apx1x
p2665
aV12hVYJvD1QWZMqV2AdFW1tAWMMCc29LN8x
p2666
aV1CFkJyg33GrXR9DN1v42SjSkxmC842SBr1
p2667
aV1A7HTLYqvfMz16FLzGVFjb89tLVR5q4Yaw
p2668
aV1GvSmRG5noPGr4BRK6w2xQj2g4qedsX9HA
p2669
aV1Ethz8b1TvULzQ2zPVy942hZ4fN1tjdcaG
p2670
aV1AoqUy5p555U7y1NcJDQS6pXpSyn4JEcxw
p2671
aV1F97XRXK1TaYGbkroq4G6BNqYu64Cs8wnr
p2672
aV1A15RgBwJMxxc4vdWpGNKqPVn1b4S7qczE
p2673
aV1HoxCVND8knL2NV8WPtz8r3r4m8oCkoFup
p2674
aV134yxo1FasSGM3f2oCVempcqespMbi76DT
p2675
aV1LjwTgNb5hBbRbt4gfjme8YhzxCRMxGnyj
p2676
aV17vLyorFgZjCRxAgmjwh8xNawHCEMts4TL
p2677
aV1GeMgTS9VZKbPdho5Rs8tMM7kJmVZmhRVS
p2678
aV1GEsLUuubcDpaJDLh3dbv7trdK9ChBU8D9
p2679
aV14Mmx9ANrR3jPcRia586tDob21kVPar2Q4
p2680
aV1ErJpdkXjYBG9SXpzEtZZLRZ5ptpxRUiT
p2681
aV1Nkpekrpe2DpiX6oRcwyi6s6o3VYQYUBGX
p2682
aV1GeRd31kLD6UMvZxNDgiQVKt7wXYPNcbWs
p2683
aV1AQC7bEM18zt5PDhjQgWhr2icuwqvbowjc
p2684
aV15e4wiiBRVf6rbUGj8GmhATpbPscqr9wYi
p2685
aV12i2QVnfavGaxdJnXpdsyRodwP2WwK1g3J
p2686
aV16LoHiCG7c7wWReoUawTPMcZLg93K2EkVP
p2687
aV1JBHYUsSe8o1oTaHkExxFVZ2Bxm1qVC3WL
p2688
aV1Cfudwemz7VFEz8B4H8M8UanVLSaYToUjw
p2689
aV1K2p6DKnHVaGfBU4J5461gXARqFeifHzPU
p2690
aV19PNow6PmnTtfYAPquExjHWzzwZhjbrAEv
p2691
aV1KJQyRLULu8HBubR3BcKNSM2ziyAcakNmQ
p2692
aV15aPDHAyrfV6goJrwvosU23Wv29H8cTgwP
p2693
aV19TzLPr89EzQDLHzSMrArcaRGkzhKSaX41
p2694
aV1NbKywZvzYW4A3TnKaektFYP529HLorxg3
p2695
aV1Dm1YkJNT6RP9MTrhtVCVEHnpzNhdoshpY
p2696
aV18WWqRgeBFPcik1pXpNXxQgUPBkanjhXjz
p2697
aV1QqzYCYo2AsCPkndzZvseXBwmo4MWXtic
p2698
aV17cGz8vxhgEge1tgciEpmk22pjn37r9Sda
p2699
aV1JjVSbWwEmH9wtfLBzsx9YXADTno4K6khZ
p2700
aV18gbGCgC3hV7LnV1sLrtuVG35tUj2YNShE
p2701
aV1P5JW82N6vamzv6hGE9wB7dWmdk7SMJKEx
p2702
aV1DUuEk7bgpUgJRBX2SeF5HzvEqxNgGWuxd
p2703
aV1PP1Xoz6hLL9GuBfMx4dQBswm9WXGyt8Xd
p2704
aV1NpDY4NZ7CxngQUuiwSjxtZu5ach4swPt
p2705
aV17gxZRvRTj5BxURzHbFVDD3BoqwqeJYk17
p2706
aV195MLyxCJA3xyYRHizohQYkTpBXhB7rq3d
p2707
aV14dvsAiFdN3UGKPsNaE1EkA6bmh5PKSisX
p2708
aV1Evoc8aUn69bVrSc5s83dULwEBt9bGw5Ww
p2709
aV1ELKRmNChP88GSjSV6mC5U9moDu3n48FUd
p2710
aV1EAedcpSjCBSjotQB5vY9EcC7xUgDUnFxQ
p2711
aV19LtuFViyYFaU9K4wtFrmdNXqoYVB3MBez
p2712
aV12DmrkKg8Grfvt7YF1pjQwgW6GDMdwQGYa
p2713
aV153iSwTAuM5bcmnYYM1JRHWZ4yTR9txUCa
p2714
aV1LKqDARR83JVmurDqKhcKGzUyAJCTaDkQP
p2715
aV126iCSrC6mEtsNdUCq7NqEeN9gPf51Lkqu
p2716
aV1KhWdHPHQwfhpLPmrVenBVCsLuKJ1sM6j8
p2717
aV13FJNNG1aU816852XiCRCUAN5CRjjtfEK2
p2718
aV1Hr58RW4FuHuNYa7XHKzxDePxgyEDkNvv7
p2719
aV1GxyM2jkiHYY6F8bHAYxVSnWDRgfoc85Sm
p2720
aV1LyzvRSSSuN8aRXaYEPAnCxTdGJxP8qkaW
p2721
aV13cwjKYFmBg3aria6nN2JdoNdjjHUbUAeV
p2722
aV1AmDDpVTnyk9UG2iziDbxmhgb7cEeonCMC
p2723
aV1F6fcV8fJkpBahc2daEjcbjQbkPqTcVhb1
p2724
aV1EwfWth77AbNLGpYbAiukkzoGM8uxWT1T
p2725
aV1JWR7JRpo8ez3Chawqdt5yjaKG6LeQSqtP
p2726
aV1LXiKoVc4tX3GwuyTKbBaLSXtqQ298MZGx
p2727
aV18vToaGGgXFpGXRQcwbYrZ6yD75BnfFKpf
p2728
aV1MPkJ5s6bXDJMaLfDF8nPY17GFTFfdPGDP
p2729
aV1A8WohFVdsfeBqSDLowbTSCxnJ7RzpWjcj
p2730
aV17668bwr7dZgwc2nYdBhQ4GWqM854UqB4D
p2731
aV19nfteZvyqQU95jEBR3kjUdxiYwXrmvLo
p2732
aV1P7sRXvdYG2ZQdCaK1SeFrTWkh7EXwi9vE
p2733
aV1LmyiJxt7ZbY6f3ee5ztVChuwhg23Pa9ME
p2734
aV1MoRiDwVKVSft5nD4UkZeS1xmmDuaVc7Fe
p2735
aV1MqyPWcFUfndTuM4Qq9RKkLsShY4rXLdv4
p2736
aV1DS7VFarwpuFDs2hH6DWbaGUfRjCPmECmG
p2737
aV18cKH1LpSTeYraGMbcTeg1HWRTVWGcNR4d
p2738
aV143Zj6otdp5XQLiu2JFZqZyZrpp8HBXJ5T
p2739
aV1P4bjqz6jJFPBC5Tu4bjeiSLQX1k3HLWPb
p2740
aV1NrZYVr1xoBCyJb1rkdwVvzBH8anrxH7PZ
p2741
aV1D66vKSsqnYZSsaciVuLhwRPQvc8Zhk7kW
p2742
aV1H2ZMrB38Y2SyNKSc4QBmyzeiQHtN5kwRC
p2743
aV1nbod4BxTVmQD8HW4N13jtsF91xrmzj5V
p2744
aV14X5XC5H4kqeTqkxC1dRr4CQEX3N1Ua8vj
p2745
aV18aYD9q5aEqBC5GuuQ2vG9nGLD7B2pzW4y
p2746
aV15EeP5KrUmZd78DFiTBoh3Wi2CNoQjjfTH
p2747
aV1PrJuShjnQCfNcZS57R7x534qws5aDRWgh
p2748
aV1Juv6vBN4zDcMAaoFPXuQmtrQmMMc4JeFH
p2749
aV13qzpk7G9MecNZApHaCwWtUP7hAfzkQbf9
p2750
aV1PwgXd4nkcx953x4AxJcpBc5ivjy41uESG
p2751
aV14jEG8xQFVHkJJxAzHsuUXyJ8XCKph4M2o
p2752
aV1FBQs5pb4ztS1jQUMgrgvhWM3eemoTNfeN
p2753
aV1DPJWiiWSDGxG7PxzW5XYpa5s5DDatsvpE
p2754
aV19s6UKxXrjEYyyMaR4EyCBPozLDySCS9YP
p2755
aV1P4jrvrcgomPZvs73hENzdwNSnEYJDssYq
p2756
aV142wrYTdh383RxcCyysNtvLrXXJtvMwRf1
p2757
aV1GKrByycbvw2nwuDxSge2MhzR1EJ91yfDS
p2758
aV14B6QSVXu5gAzywQwq15SYRaaK6dKXik2T
p2759
aV142NL5C5fKa61cdJsxPVfpxhDD9QQGRSY1
p2760
aV1Fs1ByR1866985ZcmSiFQDAEZgYEehpT89
p2761
aV1MfgbGn4BXckoGWefL2A7Ti1yTmqWCUuL2
p2762
aV1MTXAjyKjKuRvh74Y7iRDnsyyLZ2yBnZwU
p2763
aV1Nr4Zk31VuWaRCKXu2HeXZLnGsMHQBvohM
p2764
aV1B8mozGT5SmTXVMDizjNLadTQsuBnRjAcY
p2765
aV12hWcUrkKMX9tYzjWfycVJy39HRCVebNC4
p2766
aV1NogLmoGkSspjK94rfAxcT1T21WMdCnVCu
p2767
aV1HyvDh57P6Qqs3yD3KQA12GH3CDNyzdCBC
p2768
aV15bJUKSKFKFwAJBh2fS4Ah6gwAGKVHgAra
p2769
aV1B33TgHWxDmZiA46FjEeGj75GdCi3xgJ2n
p2770
aV17RynxESFS4JoKvabZoikntb6dkRvKJ9S8
p2771
aV1LSJThoM7KeDSsGsph5ttdfpXF588iTXQc
p2772
aV15zsM1TWKhb75qVrM6YRHnTxsAPxzvUg4R
p2773
aV16vuFPH9p2YvHJcL5XEwBkCMtcEh1PHxu6
p2774
aV1Ptf1FUryyXAABqEw4Dko1uBAgPvhgauR
p2775
aV1MiuedLe8mBoaDtKBYFCaBqHFPq3Fvea81
p2776
aV1KqvuwaW999YZEd8pvY3HNB1o85xShWid7
p2777
aV1Jg9nZ54iPBHqcczoGpWvmtMbzSpKAbPRi
p2778
aV1PMx2Ty1DxgHJBbtkXjj1MRRtug2buzpgx
p2779
aV167pcBemLkUsbwz4Vi3csykw4Wd1xePSh2
p2780
aV15yNac1pZDnHJ17G2hfSgXtiKf17zpq55F
p2781
aV1HZWoKBUZe5sAgaQ4fLZKXomqHSjzcFsMq
p2782
aV17ynYmNZHB9x9zVthNkWjg61T15wzvkF8t
p2783
aV1AbvAqK4txtfdamf6H3ioGS2kWQ8t74D2m
p2784
aV1D8WdifVVWbUPKVrp8a7dPxzphhrv3W4sV
p2785
aV1CF4z4D1FYswxsd9i6FGjjJtCM1fbkrHmF
p2786
aV18AWuBuVAmRsCSs44ca2thBHd4RsFfZ9kp
p2787
aV1KB6WKjfJVk1BzpwTbfnGqmfveGqkxB9cg
p2788
aV17QQJdXgFD2goSWkRfRkm5awWbd9bSLtU5
p2789
aV1AUo1RNfcqhwGPnNhQMd9CgWWSmieLTECi
p2790
aV1FU6ij4Exxn39jMW7JjaqBmwsZoscNjnFu
p2791
aV1Dw8eeaMBAsKMjCqGpS2CM2S79FWjSaywZ
p2792
aV1ASzk6iPao4ZCdoRRsLshSuNSat7BHCAPM
p2793
aV15bCnrggakbihESuSZDsWFN9jH5pnw2aUi
p2794
aV14AAAZoUK3a7M57AJY14EwVuRwv6QxWR5r
p2795
aV1Nz9MnQHMSdxKiS6u2LKFmosnUsqHA9giJ
p2796
aV1LTp14EjqEzjdEC752V4bQJfqRLDu7nRgh
p2797
aV1EqhabN7Zju2j9ZzRPvHPenrB2Jyp6ZChv
p2798
aV16PpiR9dHkZz8VRqbESMcfAZxJumotg1NA
p2799
aV1Phz9mY87K25WKVpTozimTSXS7vEftAxWi
p2800
aV1QANPtFgkZPwPDT21DwnUUeMxzGGwoB2jS
p2801
aV1LVyJcvGb2QNoAZaZC2h1uMQnVFwRGYZtH
p2802
aV143iMWFC5uVp9ZtyuXcgvMyJLkBoQQvcH7
p2803
aV1643Y5sx1JY5J2DKdwPpZNKESEJbPc3Wt1
p2804
aV14QBAR5rzfFWLFSK1kV3LwS4U3rjDWpgpX
p2805
aV15AA9jm549o3kRouXw6jVNzZWPtmTm6T13
p2806
aV1Edjh7zPouh9rLiVEAgngDDk9m4ueQjk5
p2807
aV1Kxqpf5TqeWr3jUqgsiCJYb4HZDUqoajr7
p2808
aV1MyymneaXiSd7BD6xPz7DzBJ5aXTTDP5c9
p2809
aV1D2cY465f3N5YLkGdD5WGeXoFfgMyBWFWS
p2810
aV1DHsgNtCiU67m7vruqF3gzBtTMGtGE6Cft
p2811
aV1GA1K6kWQvEF7AR4W4rbRcGsjoCxpVE5GY
p2812
aV1E5tXXv8Ja2A1MVk14GLYqdw8dHfoLf9s3
p2813
aV1CQcs7tLHbZW896TCopTWGFpixDXWvqXUs
p2814
aV1JHXpMqoPKjBDugfHMpkKxDSmo4AXyvwFa
p2815
aV1LaN9k24E99s1gwrrxnVnBvTPYjWugqUrP
p2816
aV1PtGxHrYokXtkBTiN7uoefiQXaqF7soLKk
p2817
aV1A2HcytZ3CnK8MsnisxVfck53UsdtsAfoN
p2818
aV19Czkj51eqyPpRV1tCo1nnsVJDhxfyiQ1k
p2819
aV19KvQDZSKSKKzzDkXaP2uTvEg3mNxdNux2
p2820
aV1Mg6vFLmQ3yL5QfF7NHa2s69Kqjg4QV2AQ
p2821
aV17sZ7e5LsbPa2aJU28t9ri2Dwibap6dGN9
p2822
aV1MxLicBQ2u75jrQgtYrVujxoNhjBSWtqHM
p2823
aV1D3Ry9xxwyKaaRPvMgS4cMYZYpV6i5TL7
p2824
aV1Dgug1MSD73YLrauAot3fuoQDu79STYcHv
p2825
aV1H3SNXPLN59bBKS7Zp1S6MDNogddj8Ybmc
p2826
aV1NfjX8rLCFejzTDqh14UbsFqTJy4C2c7D7
p2827
aV1Nt2XSsUWXjQ4QMuoj6V1aGHgXkfoGvVsM
p2828
aV1NkMvayyKbw7gXbHzXB1dCyoknm5Garg4B
p2829
aV19WciodmG6cJQ93AYqH9xEPpiufpEwuF5h
p2830
aV1DmcPVPyw9n6QiMzwCeetRbGTmgTcgpZ66
p2831
aV1NBHZkbwhjaPq8L6aXsLyPbp4tK47w2fGD
p2832
aV17MQGqtDwByW6MoY3jLhFxPezELVtsXTQe
p2833
aV1GquPQ6fBU6WoinQL7oXoXA4XbX5u79Wwt
p2834
aV1PBtjzoM5pPFB9K53MuQURgCT2TWmkVZrq
p2835
aV1JAQVP8M6SGx24kbU8WYcqEjrQPHstVmeH
p2836
aV1P3Ea8bZBTCMsdQxAu1NkkDTBFkSWhFtUs
p2837
aV1tCvdLpYPdMZe62DYqUxgsNhg729KoarJ
p2838
aV17BRiJpyuuA6MPs8eV3uXJSHFNYo2WYbcf
p2839
aV1JDVbUH2Yz3bX9QfRi6gCaNkPsmY83RY37
p2840
aV13thmB87ZTqarnsV9yYLqdeEEgRVksP59s
p2841
aV1P6MtxXGu3uwHkDL54asLR4XkAoPDxD5ym
p2842
aV1PL2zaVo1h3tWPUhgrMAR5xrKpsGnUuuKq
p2843
aV1MdBeg6LykiG9PM4LNdFL3aNqJARWQNxKR
p2844
aV13Dkq1FmgFMLZwppJsg8VAM4o46jjen76J
p2845
aV1BWQyicWP9dcCGz1fmA7sRR61gYurcCrV2
p2846
aV1KipBRGnmdXk8doH4M4YGHXHY7XUC739om
p2847
aV1DeoKSwpN1xqWvdYm24cZrgLXt5wFMWvZ6
p2848
aV1aFEMeHKE24Y2iYsfj1cbKW9qBRooTQk4
p2849
aV14fb95zN3Yaa1gDbuACN1hjhcAoGWbXc5c
p2850
aV1A7mQxWJvdQXtrZZwr2NjyvwRVNaRTA9jS
p2851
aV1PNXUMy3qa4DocSoQTqjT8JY1Sj2csJNxp
p2852
aV15HZhC8bbTk1Xbx4o4Yo4RrCM3Dv6u9FJj
p2853
aV1JnDn66BwNJX99pZQQ6DbLEnYy8VpZwqAz
p2854
aV1HYyAE4T5drAvXhnmVzX63yXAzBkxBnojp
p2855
aV1H4rybgFxoyeWwK3bindG26haaFFnwC6T6
p2856
aV1LdjiCBM23VuiC6mvkP1f2zsTy5m3GPRy
p2857
aV1MRCmbuMkLfdvffQJvjwyXvSCPv2aguzPJ
p2858
aV16HSVodtri8S6u1wQAU9ujTiSk94Fu9gLT
p2859
aV1KfQvzDTqEa3ogRbdUTSssVuekeoPDVgxi
p2860
aV1JHr7wCM3kEbhvSJgrdbYBKr8eoky6JhQq
p2861
aV1PwS4uh5qUVKxYtpK2hxqhhE8zRacQ3imQ
p2862
aV16B4o2371ZxEYiBq4hgxQVSmD8Pzsibbbx
p2863
aV1P4ZryRxjBhJfFj4uUf9k2XP1quBksiZKT
p2864
aV14pQCbqwDA1D2fQKFhbYs934PfQVq4AGhQ
p2865
aV1H5WUQBPGq4tYc3tCpd3qS661pTKF3ZdUt
p2866
aV1FCUuvsbbVxgNmNEwmzNUEUc6HWVhV9WrA
p2867
aV1JJLWtVme5sHeog3FjJUJAMKjmPhgb34Ab
p2868
aV15Q33fu68yxFsdoiEgmhkpT7Yg8M2XH9j4
p2869
aV1Au4XkSJ9vmjKGGYatmkTy6vKMNN7ZzuTk
p2870
aV1ASF5zo3SDZ5ZndFPRDwiTwDoN9zVjwMQp
p2871
aV19Wavstn6arN7Lf1vYieiLqFyatXc5GC14
p2872
aV1MXZjHYwZHHX28UMSRXPU3WMw8U94nc4nP
p2873
aV1GvKo2yMyL2VtkrZxXChPc3vMvFfrcNo43
p2874
aV1Lm1FhpYeeCZJwxyVG9eCHjBE9VrFrXVDH
p2875
aV1LmNnYMha29P2UP5ZQkX7ua5czpN4irUSG
p2876
aV13k4D3DpfJqeigiwik1gCuakHGdffrWnfc
p2877
aV19qo2cjnaTVKuKEPRoX4ZQoUmM7MS2hS1X
p2878
aV12xJ7pNaFDUjzbTfVaKt1yMVWZMFguCF5e
p2879
aV1BvkUGzev2RQTE9aKgYy6R8XQbcoEmWsZd
p2880
aV13wQ95HVURpLs7SsvHftR4hUYerxt46Pyt
p2881
aV1DczvhwyFAmrgm4zzJ8MxqUyoGeXgR84Up
p2882
aV18uynmtGcCqmhsgHcsFRVRnNAKjzt2qVgd
p2883
aV12WAyfmAnjq6rYrkJjPPPadj8cssjJp28N
p2884
aV1m3U72i1ujWdAMrUKWvCn7rmYqVUGLXCf
p2885
aV12bx2TcZMQju1VnNEiQ3XjiCPE3JDGy9Du
p2886
aV1E2mg9L2gSg97msYQS93EWJP83wYXmZ9LF
p2887
aV1AuDyoTdHfU4VcQZ5egP5EsDDab8H6c9DC
p2888
aV1MfQKfhrr9cJMYqrxFrtYXit1fHj1c1K2
p2889
aV1Fb7FeqHLSbUPX9T1qKtw4wpabkATMSRBj
p2890
aV1J4AzUkJHfRc45K3H8fvmhxqjowRQKDyFc
p2891
aV1DBP7R5WwUhLyvbr4XTeKNkYXQcS94WZ9V
p2892
aV1JT2S4LTboDsyE7XzAutd5SoJcejMuMG73
p2893
aV1NfPsk6zMnWGPXyimuCdUd25VLmch1JSb7
p2894
aV1BgA88MVUG1LNqVMyDrujSUsjBmPqSAGZo
p2895
aV12V2DQH3cvzTXmE6toQzVn7hMGxdGhLRp4
p2896
aV1GAXRwU34AcfYU1qm593QgapJxqKrE9Dyk
p2897
aV12MQ79cGKanSgJkeUWYEPU7MfwiNBYmGCi
p2898
aV1BXh1uPkGNHY73F5qhSweLMyec1dcbFun6
p2899
aV1PpGkFwJwzu6yiHLtezW5A6BZYuhAWURzX
p2900
aV16ffsd2sk6qpXH12tseaKBHK3GmitnfcNA
p2901
aV1Lmx1R5sGVN4cp6jdCb3GZXUMnw1ZGpPVn
p2902
aV13fYjhoGAXa6K6ZKrmv8Uy15P9BiRjBLNs
p2903
aV16WDFTWnH3EBsCjhLTxmpoKCWEuRo38aDh
p2904
aV1J7XngE5coJGBxR2Y8FXuqefbaWBA9NGSn
p2905
aV17NPRYgs9832ePSCtbR2PyqhdJdMNXE8C1
p2906
aV14hVVbbKneubfwvyEPcbzEnM3gQHUNvr2r
p2907
aV1QBmX3UerjkXP1APdjf2r6o96Wz9PuYUm8
p2908
aV18fgCgYVJsH8HcZNNhBALQYmHCnguY7PeJ
p2909
aV18LhGgyzw1R5a3Hiwp5ZQNQ6joXLgomFwu
p2910
aV15f8hh2AFUr3Sqya7qvVddVMF7A84pRg5x
p2911
aV15zKrUQYsnADwLtQGcdveQLNLaxcLnjJK8
p2912
aV18XdiSLtre7M7tcyXBJC212wZyWKJ2Qier
p2913
aV1AhkQJFKctcLmTxD2BsNV9uRDVANeJHfu8
p2914
aV14Sg9uYuoXnfwCCaCxggGcbRjtbELhYrrC
p2915
aV1JvqnrRJZ7HqvDH7yorULer7pEbmhbVSRM
p2916
aV1PG4TsMhTGZj68mZNLNf7ngE9epncsRtqF
p2917
aV1G8DU8C1G8WGbBtDaePv6NLcUKbwJXiuK8
p2918
aV1JYL37StQXbk6pYtyMqa16JN2u6snJ5KEK
p2919
aV1LTwc8B6YoL14G9NZD2FbZCjkjsgwRrxKF
p2920
aV1DWAsUH68m5bwD4uXLiLb45kAfcKCucDnX
p2921
aV1DqdWoA8F3W8AJS2161wb9NFYmH7zoHqAM
p2922
aV18XTWXN7CVmKB1UKXTBuNZC4hLeJHLP9mQ
p2923
aV1PnYCHyKqThkFykzYyENjfmFM5UexkusUC
p2924
aV1Abn7f62BN4LndnFXc31unJEyUj7MqMb5i
p2925
aV1BKSgaTc7GqaEeZ4ErnbAs3mS9dDQ5ihUy
p2926
aV1N1rErf6hNgCbYpLw4fhPXwPwHMSaLBcBo
p2927
aV16qQag2vzeSerJkLC3m6P7QG63UhC9F4Fj
p2928
aV15qwMj62HVpsiXfFEdDyb5sotwhJBp7Ss2
p2929
aV1EAQFtnXRH515veTFrFLDEcvekfFfMJ4cJ
p2930
aV162gxxynDU1wieQrEAx8PvcARrc3UTsDAf
p2931
aV1CvANwzCLaD1vgg2ce4yTMR7hu47w38aVw
p2932
aV1NUHu4A1h5iVxDXtRTyBsSJ7i2CkRVo1w
p2933
aV1JGo4G46RwKv1kEDTWDsfF58ChRhBSsqRe
p2934
aV1KyhWWx3rasp8ikMMVvMYGgDpRH5WTDr9g
p2935
aV1HTC9TMUWum3j2MyB82vFEVirRDEtaUgXv
p2936
aV17qzfS8e85pjcceqwoNaWK9qUyfeyppXwq
p2937
aV1CvpbkZLszpoE91Niradp1qu676ebXg6Ki
p2938
aV125XYmAXFpSNAnKVmsw87uWpknqw2TEFZV
p2939
aV12LkvidRw5WEs8EaxVXA7EzN1E9aMtqk54
p2940
aV1GNiuu37JvmMS1GcsrafcyC28tShxwJBPY
p2941
aV1BogzTVPcRW7kjiLvMpcrWJtj3Vkc59CnK
p2942
aV18JHji1NpJ81rTa7sGwaEdk8Me8J8vfMTX
p2943
aV15h44oSHcLcP7CVBVzEGKoFCvMdDMqQm3C
p2944
aV1AwoKhHJds4hUyfQnd3dSQtFyJPr33RTsT
p2945
aV1CCmped256Y7bJSBiDKFz9txCEH5yNvz9m
p2946
aV1KfwhRd45KnKyY6t14wzYCfs2aWXPLUhi1
p2947
aV1GgVqQMswhuxbFCNPyKALFLupVUE2XVWTV
p2948
aV14hB4ixufzajHLjS8bqas6fixiJ9d5UePb
p2949
aV1JQk4EDYDs5t42wqBBBKncc1s9ayZy9GRL
p2950
aV1LXMqWgVGbFyizZ4wM9GhYADbuisCAGbMS
p2951
aV1P6bvhkqwXDkAaZ3giv7BzxYnFNGJv3xCW
p2952
aV1NNVCejrJRke7QWryrKt19ieCWCuPXNSrz
p2953
aV18Mo3cDUgrEgrhFmUa5uAzusD4yAP2oVg6
p2954
aV1AvsLUcFxnw9GTBgMmvwMwU6jGRipqMWDu
p2955
aV16sL22yzkiADZU2LnBaT7xT2BWtSEJaLf7
p2956
aV1LmayrVUMmYxSGC6u1pMXXirqftVHZQ8e7
p2957
aV1AHY99ZnPjEmgmDC9FjTEyjzYTVcQZUZro
p2958
aV1N3PNvqRQjCWMpB3cZ1uoU4R7b5SjYiVLv
p2959
aV19SNVB8QFL6ZKzTjgiqLZsg1a8EdiG8gxU
p2960
aV1EAt7wpwKfw1yoV7uRLCdVeh8SBBPVwZWg
p2961
aV1HhyvVTGog4Z8esBSvoXh4f8LjgESMti3f
p2962
aV1PhGym26gx5eHSY57KedrR666DtkuehdhU
p2963
aV1CrpELDNbNa5Axbg5VyEnPpZ29xr7c1sus
p2964
aV1EqUTVHbh9ntjb6unFJxEPLWocpxoYLGAY
p2965
aV13zWc7kRPrfaLPmYTFX1pRELdhmgXXRSv1
p2966
aV1HpxZtZexRbmehYUhrtwC5UKyEuLzVhfLP
p2967
aV1AmmT9X6oih9DHScYNAAoesukGxGhevLMU
p2968
aV19sARKhYFDBLqGwkxDEptJXaRBryeQiLH1
p2969
aV19apYrKiFt8Rf7vERB731KCBQQe9mZya9D
p2970
aV1Lvj2fzngV72Pev4JBJ9fWaJzfjExkbKK5
p2971
aV1MipD6WdJGSNj2s3B1e5e1DbCYb4SWiztT
p2972
aV14x97X5HSa4HGvPj13hHgsWTB4pFJ5QHsf
p2973
aV15NbXon7Ku8KGCDvDiZYwFRxL3s6p3wjoC
p2974
aV19rTMXBj86EXX5hy38Qtpmq4eSWKphWPwV
p2975
aV1GxkNvCTTM1MqPcdGE4boTGg9yneDfF8Kj
p2976
aV13VYETtFeu8UAJwYgwjPkufoNoCXFYecPh
p2977
aV15hC2w4qvrKMe5dBFG6XAv96Y152npwYKA
p2978
aV1JhJrhxSa4fBxEs2mCVYPwyxYvNtiaTRqU
p2979
aV18fEXHd1KKG4WWY2btcKgaf92Vcc1No7rQ
p2980
aV19Xov7H8Et1eZvdPRQGLihqMy5AG39u6Fo
p2981
aV1PTZNnoMWPD185RrEv9pWhokiEv8xHDvB7
p2982
aV1HBf433wb2GGaVuuCaG7M1mwLGYtj5hpZZ
p2983
aV13y527fyJEKJCTfMRPJ4dwxKPSGWQ7aehk
p2984
aV1EP29PdacLFpGGcNoYShkrbfGvnLYsEiZc
p2985
aV1J9Eb1JSGFzYMqKArLFm2QMU1D4QfsUabd
p2986
aV1BY2MRTC57T7mQgxTVPSvdmTCqstkjcZ13
p2987
aV1Hr1MKHU3c8VSRSjgryrcNyH3NxK6bUivD
p2988
aV1MtwbUBkKw6zvEMtqd3Gm4yWGcR9TtVTsE
p2989
aV18QGEoRi2EVAimpMtUP5qA1UpGY4pWdS9U
p2990
aV1LxmQSHoB5KRHjAABqx4z1DWpqeBKvQ81K
p2991
aV1NB8FuNgDtb2oMWoPSXgRfWPZd2hbRgkeK
p2992
aV16SVVYsnUBKaNhaBNwHYiRJZMZEqwqKKqZ
p2993
aV13VexHUpbrMLHVLm58iPhKZbM3g1hNHkLF
p2994
aV1MkymDCZZJvJnGKaXxr4GoCMcHcKNn5H94
p2995
aV1CSU88ryPXFr8RL4chDEdVeQg5VjVvB2oi
p2996
aV16t4s34sKKAN9w6ZWurnm4WxFjAGab9v9D
p2997
aV16sBPpy91VWQiEEA629GsghGVKXpX7Bpzw
p2998
aV1AAuYKhwaC9QhBgnVMhoRyoQoBYeDi3t77
p2999
aV1BDZDbGZZ1Lmuo8dGsZYFmoB1pMH8btRvh
p3000
aV1BxAqvPzxLni5tKRoAuNmMFji3nVEAN1jd
p3001
aV1F2SM1mtMhKGLKTigQ7JJLSDLVdkfkXfss
p3002
aV1PM4h1iBNfAGBYmPjHfQNLdnLKb2k35k7c
p3003
aV1CAZHFZo8Y9AHQH5ViPEPQH2qr7xz6jAKy
p3004
aV1Ff6MWooVmdM1GjohLDGFGepjMt2HQBJWh
p3005
aV16kwRTQ3DT4VHrLBMrx52wahyNXDBRrhyo
p3006
aV1DPQhX4RM72Bu1jxpZPTo4CGng667tEVVK
p3007
aV114rznCyQUhA9ToXjGCa7187K7hLuJyWXQ
p3008
aV13UeSJsrkRnSEJNqRxscPcC3Q3MFzMU6Pu
p3009
aV1CagmVU6AJc7rW18Ra2Lg8eF7gUF3BRGeh
p3010
aV1H8bfh3c7okp6RTunZYpMqV8KAo8CnMURX
p3011
aV16K3FKwbmj92225TPZrrhMJNdyQjx85ab
p3012
aV14NZ6dsYufwgqLgnufXvoAQaipUoXfhTzn
p3013
aV1MvvNJym4mFMnLV7ix36NiGR2gfz3v8Yh3
p3014
aV1QFDHSV5QAyLxU4fs6HU6gLL7UY4xYYae4
p3015
aV1PEs94WbmKCe2W1ZuBC2AXV44xFsSx5TyK
p3016
aV1K1oY3UA9uj7yug1crmTTxFMj3WBnuTumt
p3017
aV1DYShQCABjdLWdoEwg2az86vTtkc43dhs1
p3018
aV182bjrDd2TM69azauTbLqwdggjpynb61RD
p3019
aV1EswW3cYFBKgdC2Pq4JCJZE93BGoi511e8
p3020
aV1BFivhkPk5DpLrLRjaZcgrSyG2umKdS2ep
p3021
aV16RDiHkSkVfzPYSVwzKo9PfvGV13aNCnNW
p3022
aV1BrSnhGPCLJKxE34GBrqJewC5RfMxe1RTT
p3023
aV1HrnGNivWvAxTgqJJpCv9TmA8wA3Gziafk
p3024
aV16G9DBGpyGya9v3rBSvsL5vyeSpBJZx1ms
p3025
aV1CFaWvwSzxfgymb969fExXFRzwCfXGWJiR
p3026
aV1MsWj9TydepstZK5fMbSfV4hhqs6HRiQYy
p3027
aV1DWf8XuS6ncyABQHf3pwKFtDwWSbiAHeH3
p3028
aV1EXr7oTumkipvMrGu6BjwTZp2yxmwvbTrE
p3029
aV1AAWjw7VGYzheXRrVS4VWNMybcpteBHchc
p3030
aV1DoeMKcpaxEcbq5Wax6Wc2RXiC5pHBKepJ
p3031
aV1JtyH6UkyXw7ADWcrSdey6bkgNz5bxBKss
p3032
aV1JQavvgxQPfGGTn8WfLB7gQEASKZ1koemi
p3033
aV1Go7PGCDHAyjzqAe4XWW1NbEU2grAdVen3
p3034
aV18uznBF3oV52aeqyDNrdafpoSf2hXBeDmn
p3035
aV1GJ6wgngwk98f5WjZFusp3LwLgZ8qhtbCA
p3036
aV1NYrr8FKUxkZM96jZY7bhjfBaGUD78aM57
p3037
aV12dMMLeoBkydUS8MvHCT1Uh8YrYUDPK6ph
p3038
aV1GpaqMidbE1cZ5VDGjSwkHtAZSLxtk6YfU
p3039
aV1B6acMMs3M5MFsio2GyewPHUbXLkFvN5dV
p3040
aV14y2MfNPbhpP6QGzREWo2LnuoQ12MVBcL8
p3041
aV1Kpc3WruWeTAbfkUKZNWqG9vSnLCuz68xo
p3042
aV1MznNoFyHFdGni87gLKU9cvJNRmrxZFAsD
p3043
aV1DxGwMcWos8622ivA6gMmmfHANXJRjwv3W
p3044
aV1ARBHHcaUhd4MyeTShSAfUDFvuzPY8J9UY
p3045
aV181pmdLArQ2D8fyWn46hJwYBm4YzCPFzNg
p3046
aV1EGtuSQVFxeGsWpbnoBtYWtounrAyoNvLM
p3047
aV1JwHdo6UHzvdT7wQXMyYJcpNyfQefzkLYE
p3048
aV1QHaLy3tr1EfWuAwThcoHQLvhbVRYLApau
p3049
aV1L3YKT9BDkY2HDkg9toBNuhxPFS4QbUnFp
p3050
aV15H4etzWtse4NqxDBQQCuSyHppK4QhqYQb
p3051
aV16CMwKZiRaoMtM7guud4jiRdkYPpx5YAJY
p3052
aV1DyN63F7KgmS5s7g5VPCTbHsZwqASyozjp
p3053
aV1D4ZCw9Nppbhpms48285gyVCiPwJEM1di7
p3054
aV1GGtk5JMfGXz8kYAkv3a7B5UNeyoxM25tn
p3055
aV1NbLHg6YoLY1wAhbsAbHt2wzu1yj5FLrQq
p3056
aV1K1qs3hAEYWvUooP4WSdX2GpQKtmipmQVJ
p3057
aV1FkNLYidAvdNBdPsgjyTsUz97Fe75ZyKYP
p3058
aV1KiCNVPzWBjwqomy91ygjGmTgPfSbqZwui
p3059
aV1E9Q5DyQxVVEBYBtMSZYFCR32VEGywnkcu
p3060
aV1HCDDDRjYFfMHx8UQVyipVVLMz248uhcuR
p3061
aV1E6ZfG1JkosMkQSJYpRjJ5LKNRYKNYEpkG
p3062
aV1MUEy4UYxQXejnwe9mWWQvUWew44vVwvHA
p3063
aV18uqzQY36mCkcDb6kfNu7oaV8p2W5ppqHJ
p3064
aV1GKG4gAvd4e1VojFvg6CwPXSFAsgX6WKeo
p3065
aV1HRQRVxSw1hgh1QrwJspdD7NuU75dntJuX
p3066
aV13fAy4TeZQKveDhB4E8Y45rm3toAsdZ9FM
p3067
aV12pUtzQvM2q9XtvDXgMKyEfPZASFcBeeNN
p3068
aV171LKRSo6puULVbY3fEfNwwsB5nybDNZip
p3069
aV15ALjULtvRjUaDZGMEE3cwWoQpPnrQGv42
p3070
aV14PSKYHg2xJim1TmbQrG59Zgfro8ppzU5k
p3071
aV1BNp5q9rgHwgyD2tQiFt43h8QwwShVwicP
p3072
aV1PTFGkJSENv3fZWKKsTS11GKhNjuPc9XdV
p3073
aV1C3SEz8gxPUeq8AAVTkFxZJsarsNFjbfZF
p3074
aV19PuB1WzVXMwrThVduK9M9Tssm5f2AT9db
p3075
aV1F2T9USrtSQNGz5nGeU1fGTdqtsuVVXcUk
p3076
aV1Gm6YbZgqXxDgvMBKoaLzeZ8MYTwwJ6ZhN
p3077
aV1BwfkzGLnYnQTvKrxKjboPb3yD4yKLdW69
p3078
aV1849Az7CZ7hVe7z25WJ15CdRGtQ3RP9iw6
p3079
aV15TSqYRwiCbzzU1yoTvPkniUpvbX261eWE
p3080
aV1DsMZ3JcZSas2cCFNTz92EvjpL9H1JcjEA
p3081
aV1NpBZfFzfEZbPC68F4ossie4vZqegxpUQT
p3082
aV1HTK58fVisczoBPFMLpHFGi5TqoxN21Djo
p3083
aV1CcNT3R4bhq9LEmQVTFKFkLv1561wAJ79r
p3084
aV1BpPGVbz6tBUtJpHEZVZNTFtQVLijApst7
p3085
aV15MU8pvYHezspw7VtLWNG5ackF47C7YNPc
p3086
aV12wGw5zaiadapHyyXBZ5aqMRkQAhHifSAg
p3087
aV1JHvtpyPf9bNvppTd4BCKj8S6wSRtnDHXm
p3088
aV1DiQ8bL4UBN2DE5ouoy9KTSAeHPq23jThk
p3089
aV1KZmAtpSppLdSuCNoSbx6uHvEuzzieb2gA
p3090
aV12jSFS1AB5qidyQ95AeRij8QMiDRXFUhKT
p3091
aV128VNWjYgQfA8898QKAitzM3pAvFrujn4Q
p3092
aV19p4UHgcT85UUKYaQf7MtBM2y53Y51BC1V
p3093
aV1C6qPZRSgP9FJNwQ5dsdbb5zW5f7vbvX9s
p3094
aV1E2cmBbh1fssLCWT9wS4b4r8nnjLGK3tSr
p3095
aV1FcmaYPfhryfwwLmCG1gbsQrFASBR22MfK
p3096
aV1DgkZiafjx1cbN1hTDdRzTeRkqKRr91n9C
p3097
aV18G74jpxcYXXxC2F9Xp2td1x9y956Yvexp
p3098
aV12fccFKZDCZzoZUyjaBbneonPrzomcugTR
p3099
aV1HvKKoAMnvoe3iFz9D93oY9W4Eaiy7KdrV
p3100
aV17RFS32dMju8fiTZZmTKKS65vKCyzCWTwT
p3101
aV14Ro689APgvBPmPnBEdxuqAsTZz9M1fnH5
p3102
aV191JinGxBb27jEDsYq4qBAknDNbpNi4NW2
p3103
aV17p6rgEPR5BYmc5JEe8uchYjxyYo9pA2AT
p3104
aV1BpWmGM3ic7ReBeAWXhzFPM4SM4TgPVQB4
p3105
aV18kRacAmgYDuEGv1gD7RiWAW4pnm2mxz3s
p3106
aV13iQKFnor4dKRW78tcLVWAGLH2DoULzEGB
p3107
aV1NsjKgCw3oNB5ihP6K3oL6bjyZEtg2hscQ
p3108
aV18ySFAUWaho2QFWqP8zigxPRfoUJHf4tR1
p3109
aV1MFBPutVtpzSpzKEAFMmHgBbsmqdbCNTyA
p3110
aV1BPkg1YW7L9budpQ5ViobGJtroPCxm9Eye
p3111
aV1DsDuyQDAJk593PD6sqNAyTDBiy9vAodxq
p3112
aV1PoANg6ZBKLRKiVtFAvbm7qpZtCLvvfpp8
p3113
aV13HWQfA6Bqxc6ciEDeuvjiQ6GMZTnLAs94
p3114
aV1EyNVcWGyJWfu83NzW94DHqnQ2kqFMVLfM
p3115
aV1LZPBoqFqxVsP9Q6YEUhWcgjB47TsRGU87
p3116
aV1CVDFPZEkXsSbEDzsGzKdmvp9A1XF2bqH9
p3117
aV1knbhNSGYiggGE3UBN28cCmpCjqpM3eZh
p3118
aV1MbTVzqjxMMXGwVy3dWiQGZybA7JmzPNxY
p3119
aV13hzK7w3kBYyEc8r8EuWeWC1iesDsgz8Tb
p3120
aV1BdCY7vvDyZWCivA7f62jjZGPrQj7DVXMk
p3121
aV13BR7RhqeH57VRi5xTwVgSjcLDCzCb6Xph
p3122
aV13C9X3mrkZZZhuCJD5zsP7nzrhGajJQypy
p3123
aV1K5cbDtB9FdLJvMfKMm2dDRwU47fSUT38c
p3124
aV13cS7kQMYvTHPiFFTAUefURKoKej3Hin1r
p3125
aV1D5bcHsNuzUcMx22oxaBBjm4uMEZZDVDw4
p3126
aV1LBNdrK5Rg9LX1gmZsoRjDrhD9wdBzerqW
p3127
aV17pKg8SAGrqdGLVCGUqEyps3MYd2hQTErJ
p3128
aV1NWNc1ui6cTet9h6SQs89CnS7fHKWp97XX
p3129
aV1PCSKL39Zi6uZEYMtNNuyU8Gxf7EVP2Luf
p3130
aV17cE8bucaehCjF3K38qYEGo9xn1X4YUX1v
p3131
aV13P4Xci6Wu7q6P3SwxBZWNNZqERb3Jeafa
p3132
aV1HV7ZPvXCZeXPVZTmehEQW2bwiauvmSQ5H
p3133
aV1NdF2obS9kA61Z127xQFxBvJypzY5cjt9R
p3134
aV1941wth121FiE8kQ3hvYmvuoVGatwuQWfR
p3135
aV1Ffyx9Z3p4wdAxPodRt6tkCA4AqujaEZx6
p3136
aV1Cw5wdEu4XMeax74VX7SXVyjNbHKDaAFfH
p3137
aV1Q2KhTdtGsPQ98sRd1pzffqWETzJykxY6T
p3138
aV1JvDiwLtXFmUL1adCcyoenQ6UsUemtyVmB
p3139
aV1NE9Nj3h4PYKAuN8uLrm9J2GBinFidQUjT
p3140
aV1KPPNDqPiy2J552N576gsc7eLvYh55JM5A
p3141
aV1NnsEdRPw18HZ5AAEctd86nkg1LhzxWTua
p3142
aV14DVgrxM4aDwkejrq3LeDVef9STKrnMz33
p3143
aV1AHrvb4QCY2pxHT4jjGYTPeNAjwkZqBDJZ
p3144
aV1NH9DYPtfWQMakNz6c4VNzzuNPkort21SS
p3145
aV1MoH5LcmJrnTvFzRDmu4itohSqAqYTVQuU
p3146
aV1FN9TeJW9EYVwqyiq46fxS51d5Swr8UnK8
p3147
aV18MemGs1vdorHUkqcXDPSfd6jsyo2j61DY
p3148
aV13QoAQAM5JYcN5Kaph67DKx6KjUwZmtwnR
p3149
aV1YmSh4cLyTZbxSKfck6ymbPrmZKrKcTMg
p3150
aV1P9jdU5xGcF8VYGMCvzafAribREWTYVPaA
p3151
aV1CcmZfdRhCbSeWNxnaJgACkCXJiEGauGVv
p3152
aV14kHWvFV6n318gCy48ehf3wdFS1tbPdZxf
p3153
aV15FTxy1ZRhD2DQwC8hsovARRyu6VBbf1Xf
p3154
aV1F44dvsSFEoWLabTNMtYSiswqArdLbyCJT
p3155
aV1FghXU9Tj3QndibGReKjrUhkUSKgnqjWZn
p3156
aV1Mp24gnrJ1Fm1UiRibBmuAVEwvzJiS1jYV
p3157
aV12zMhFLHpJYEbPToAn9QtXY9wXUhUdfcU1
p3158
aV1g6TKTeDQ5RKF1vpbBwtWt4f3dTgTYvqa
p3159
aV1aeDdbuvrhAr87Bt5XkPxPfgHfzgJ7iD3
p3160
aV13WGFiK8WKLAarKJayCK14i4xp3BP4DAtC
p3161
aV17eMYsdEzpHurse8Q3tnGKdquYgv8mm86Q
p3162
aV1HKJLin3JatBorBgUHabgyfUiyRGjzowR6
p3163
aV16SjMPJYM5m6tsT6nr7V4rKjsXp8Xg9GPw
p3164
aV17jdRzYyZPvE3RnheoAM8xxzQdnzrysTmK
p3165
aV164E1yQkaqH3uZWLiduH4kUsA411aJgzut
p3166
aV11536WhXCNVmwUowhkAGKDCy71a6nrPmjG
p3167
aV14jE7PPsg1reseXgvCmMsUSpB5ZtzZLxjJ
p3168
aV1GdPEKZpN3UZDxdPMbyXfH3X4nBzVzTpTt
p3169
aV1xGsYqaY8ju15DsfUafMaWJn5UjJWryWx
p3170
aV1HRxY9v6iUPkFkUAaEDUsrm2QPo2hpkTFS
p3171
aV166mKHqe7NK7bd8zhUe4MPpmGeHCr6Z5pu
p3172
aV16ZEt3ENy6Lq6A1ci24T9fa7J2P3jnFVBr
p3173
aV16RNUgK2Hvm5xHALQTZ7VysqpGoK6EJg3E
p3174
aV183nM3a57S9GTZAGuPSeyzyKP3umPqLQs
p3175
aV192HGphvXnvjrxXNwxKyPxhodKn3T49q8z
p3176
aV12UDF6GUwunStX2FRqHHphggVkWTD5FMSc
p3177
aV1Ljj2CFxaJqT39FgY1uhjpyqSvuxZtooh5
p3178
aV1J48P6j4aKNcJgCBMEu7mqzC7boFeHmxa9
p3179
aV1J9suc1SKrmBd8Nejz7CtbBMYtBnv4CgGd
p3180
aV14DY2nCZs4pGX5yBHuGNv2fFFsfuYVqzgT
p3181
aV1LPbw35zv6dYvEoxoRqy5z7iUrkmicqvgS
p3182
aV15VbkTDK9aYs6h9FC9jBsWrhFHBnRgyW4J
p3183
aV1LipW1xUcSY4ScCpF5ZHutHSZWMqmYLoyk
p3184
aV1GEroyL2JBKL96BwFD3Y7sVBEWzz1X38Qw
p3185
aV15egrTvjkGidTHQPiqwdqUaNcEWHGKbxtX
p3186
aV1JKJTe2KSDuGinAVYheUfwGH8amEc3JwDi
p3187
aV1B13ftTkG292YpPiiUQigYsZpUgzJxJT1f
p3188
aV13CDwMpkAaN7buvxkZATcCrawMwhEXGK4r
p3189
aV1F5ZyM8ph4bN62uVidui1zRc4tBNacu8iX
p3190
aV18iyDfnCEFDrKXNmbvEbrQtTgSuWPkbTkA
p3191
aV1MQpinKLqtDRYX8gH54iFY4zV3D7tFDJwk
p3192
aV1AcGdS7Xg94TJnEmP3KeuLahPBSDLEDwvQ
p3193
aV17XmrNQ8eJjNb3TTxPjUTQ1ZRM4jR9xs1m
p3194
aV1QFuUuXSMG7eXmNWPgiXskfJPjpC6xPehf
p3195
aV1Kj7Nv9o7qd68P4f439AhQ2uuJbVipN57r
p3196
aV15jKx756xCssA72PSHprx1QKJ47B1Yd9Q4
p3197
aV1FKuejSppU47XaycmS2fghLRNVYzKxzBqZ
p3198
aV1Gn7zpqFa2LJ4YjZnZMQah6KELYz3ykkLu
p3199
aV1C7eBBQbj1xEBg5vijPD5drmzMEoCLKezd
p3200
aV1HxLRtU5yfs1krSog4UfUWqNzoZBTjcqZW
p3201
aV1Pc6v3YwdL1RxuvVhAVzCyKTk8ZH2YwyaT
p3202
aV17L9qnPA9jp4Zffcrov1BFVxoKtaFE7FQe
p3203
aV172d4jhAcz4YaSnx5NPuRFHz6MTFBhymRi
p3204
aV1678t93RW1fH2PQPtXoshgr4yPNHJNL499
p3205
aV13weFrWVzrxowfUBccXfJ4khLGy9MpBJSe
p3206
aV15728pWeJhr61ZgL9KSJdzBQrBDPjyg9Ct
p3207
aV17t3HU6fiQSi9Yr1FjfrZiqDbGptV4MzkA
p3208
aV1JBCSbVUysMicSBF6mMCr6PPfnf8Gbfn9G
p3209
aV1Q72bc4JGDD12ztLh6CCk55Zg3eZKgXQ1r
p3210
aV1PNm6DXHBhQnPHyn6AkBuPknae2mqwKva
p3211
aV1Jqpt8aEibPhKzf2xGbe7XERV9mCscFaKc
p3212
aV1D6jCmaXbAhK6Hy8HNRbrkujejYYzC7tk5
p3213
a.